
========================================================================

** ELF Header Information

    File Name: D:\Fork_ws\MM32F032_s_BLE_RT568_ADV_Sample_v3.0\MM32F032_s_BLE_RT568_ADV_Sample_v2.0.8\1_SampleCode_HAL\19_SPI\Rafael_BLE_SPI_DMA_Reg\MDK-ARM\Objects\Rafael_BLE_MM32F032xx_s.axf

    Machine class: ELFCLASS32 (32-bit)
    Data encoding: ELFDATA2LSB (Little endian)
    Header version: EV_CURRENT (Current version)
    Operating System ABI: none
    ABI Version: 0
    File Type: ET_EXEC (Executable) (2)
    Machine: EM_ARM (ARM)

    Image Entry point: 0x080000c1
    Flags: EF_ARM_HASENTRY + EF_ARM_ABI_FLOAT_SOFT (0x05000202)

    ARM ELF revision: 5 (ABI version 2)

    Conforms to Soft float procedure-call standard

    Built with
    Component: ARM Compiler 5.06 update 6 (build 750) Tool: armasm [4d35ec]
    Component: ARM Compiler 5.06 update 6 (build 750) Tool: armlink [4d35ed]

    Header size: 52 bytes (0x34)
    Program header entry size: 32 bytes (0x20)
    Section header entry size: 40 bytes (0x28)

    Program header entries: 1
    Section header entries: 16

    Program header offset: 353444 (0x000564a4)
    Section header offset: 353476 (0x000564c4)

    Section header string table index: 15

========================================================================

** Program header #0 (PT_LOAD) [PF_X + PF_W + PF_R + PF_ARM_ENTRY]
    Size : 14216 bytes (12016 bytes in file)
    Virtual address: 0x08000000 (Alignment 8)


========================================================================

** Section #1 'ER_IROM1' (SHT_PROGBITS) [SHF_ALLOC + SHF_EXECINSTR]
    Size   : 11624 bytes (alignment 4)
    Address: 0x08000000

    $d.realdata
    RESET
    __Vectors
        0x08000000:    20000a20     ..     DCD    536873504
        0x08000004:    080000dd    ....    DCD    134217949
        0x08000008:    08000103    ....    DCD    134217987
        0x0800000c:    08000105    ....    DCD    134217989
        0x08000010:    00000000    ....    DCD    0
        0x08000014:    00000000    ....    DCD    0
        0x08000018:    00000000    ....    DCD    0
        0x0800001c:    00000000    ....    DCD    0
        0x08000020:    00000000    ....    DCD    0
        0x08000024:    00000000    ....    DCD    0
        0x08000028:    00000000    ....    DCD    0
        0x0800002c:    08000107    ....    DCD    134217991
        0x08000030:    00000000    ....    DCD    0
        0x08000034:    00000000    ....    DCD    0
        0x08000038:    08000109    ....    DCD    134217993
        0x0800003c:    08002251    Q"..    DCD    134226513
        0x08000040:    0800010d    ....    DCD    134217997
        0x08000044:    0800010d    ....    DCD    134217997
        0x08000048:    0800010d    ....    DCD    134217997
        0x0800004c:    0800010d    ....    DCD    134217997
        0x08000050:    0800010d    ....    DCD    134217997
        0x08000054:    0800010d    ....    DCD    134217997
        0x08000058:    0800010d    ....    DCD    134217997
        0x0800005c:    0800056d    m...    DCD    134219117
        0x08000060:    00000000    ....    DCD    0
        0x08000064:    0800010d    ....    DCD    134217997
        0x08000068:    0800042d    -...    DCD    134218797
        0x0800006c:    08000461    a...    DCD    134218849
        0x08000070:    0800010d    ....    DCD    134217997
        0x08000074:    0800010d    ....    DCD    134217997
        0x08000078:    0800010d    ....    DCD    134217997
        0x0800007c:    0800010d    ....    DCD    134217997
        0x08000080:    0800010d    ....    DCD    134217997
        0x08000084:    00000000    ....    DCD    0
        0x08000088:    00000000    ....    DCD    0
        0x0800008c:    0800010d    ....    DCD    134217997
        0x08000090:    00000000    ....    DCD    0
        0x08000094:    0800010d    ....    DCD    134217997
        0x08000098:    0800010d    ....    DCD    134217997
        0x0800009c:    0800010d    ....    DCD    134217997
        0x080000a0:    00000000    ....    DCD    0
        0x080000a4:    0800010d    ....    DCD    134217997
        0x080000a8:    0800010d    ....    DCD    134217997
        0x080000ac:    0800010d    ....    DCD    134217997
        0x080000b0:    0800010d    ....    DCD    134217997
        0x080000b4:    00000000    ....    DCD    0
        0x080000b8:    0800010d    ....    DCD    134217997
        0x080000bc:    0800010d    ....    DCD    134217997
    $t
    .ARM.Collect$$$$00000000
    .ARM.Collect$$$$00000001
    __Vectors_End
    __main
    _main_stk
        0x080000c0:    4803        .H      LDR      r0,__lit__00000000 ; [0x80000d0] = 0x20000a20
        0x080000c2:    4685        .F      MOV      sp,r0
    .ARM.Collect$$$$00000004
    _main_scatterload
        0x080000c4:    f000f8a2    ....    BL       __scatterload ; 0x800020c
    .ARM.Collect$$$$00000008
    .ARM.Collect$$$$0000000A
    .ARM.Collect$$$$0000000B
    __main_after_scatterload
    _main_clock
    _main_cpp_init
    _main_init
        0x080000c8:    4800        .H      LDR      r0,[pc,#0] ; [0x80000cc] = 0x8002911
        0x080000ca:    4700        .G      BX       r0
    $d
        0x080000cc:    08002911    .)..    DCD    134228241
    .ARM.Collect$$$$00002712
    __lit__00000000
    .ARM.Collect$$$$0000000D
    .ARM.Collect$$$$0000000F
    __rt_final_cpp
    __rt_final_exit
        0x080000d0:    20000a20     ..     DCD    536873504
    $t
    .emb_text
    SysCtlDelay
        0x080000d4:    3801        .8      SUBS     r0,#1
        0x080000d6:    d1fd        ..      BNE      SysCtlDelay ; 0x80000d4
        0x080000d8:    4770        pG      BX       lr
        0x080000da:    0000        ..      MOVS     r0,r0
    .text
    Reset_Handler
        0x080000dc:    480c        .H      LDR      r0,[pc,#48] ; [0x8000110] = 0x20000a20
        0x080000de:    f3808808    ....    MSR      MSP,r0
        0x080000e2:    480c        .H      LDR      r0,[pc,#48] ; [0x8000114] = 0x4
        0x080000e4:    6801        .h      LDR      r1,[r0,#0]
        0x080000e6:    0e09        ..      LSRS     r1,r1,#24
        0x080000e8:    4a0b        .J      LDR      r2,[pc,#44] ; [0x8000118] = 0x1f
        0x080000ea:    4291        .B      CMP      r1,r2
        0x080000ec:    d105        ..      BNE      0x80000fa ; Reset_Handler + 30
        0x080000ee:    480b        .H      LDR      r0,[pc,#44] ; [0x800011c] = 0x40021018
        0x080000f0:    490b        .I      LDR      r1,[pc,#44] ; [0x8000120] = 0x1
        0x080000f2:    6001        .`      STR      r1,[r0,#0]
        0x080000f4:    480b        .H      LDR      r0,[pc,#44] ; [0x8000124] = 0x40010000
        0x080000f6:    490c        .I      LDR      r1,[pc,#48] ; [0x8000128] = 0
        0x080000f8:    6001        .`      STR      r1,[r0,#0]
        0x080000fa:    480c        .H      LDR      r0,[pc,#48] ; [0x800012c] = 0x80022ad
        0x080000fc:    4780        .G      BLX      r0
        0x080000fe:    480c        .H      LDR      r0,[pc,#48] ; [0x8000130] = 0x80000c1
        0x08000100:    4700        .G      BX       r0
    NMI_Handler
        0x08000102:    e7fe        ..      B        NMI_Handler ; 0x8000102
    HardFault_Handler
        0x08000104:    e7fe        ..      B        HardFault_Handler ; 0x8000104
    SVC_Handler
        0x08000106:    e7fe        ..      B        SVC_Handler ; 0x8000106
    PendSV_Handler
        0x08000108:    e7fe        ..      B        PendSV_Handler ; 0x8000108
        0x0800010a:    e7fe        ..      B        0x800010a ; PendSV_Handler + 2
    ADC1_COMP_IRQHandler
    CAN_IRQHandler
    DMA1_Channel1_IRQHandler
    EXTI0_1_IRQHandler
    EXTI2_3_IRQHandler
    FLASH_IRQHandler
    I2C1_IRQHandler
    PVD_IRQHandler
    RCC_CRS_IRQHandler
    RTC_BKP_IRQHandler
    SPI1_IRQHandler
    SPI2_IRQHandler
    TIM14_IRQHandler
    TIM16_IRQHandler
    TIM17_IRQHandler
    TIM1_BRK_UP_TRG_COM_IRQHandler
    TIM1_CC_IRQHandler
    TIM2_IRQHandler
    TIM3_IRQHandler
    UART1_IRQHandler
    UART2_IRQHandler
    USB_IRQHandler
    WWDG_IRQHandler
        0x0800010c:    e7fe        ..      B        ADC1_COMP_IRQHandler ; 0x800010c
    $d
        0x0800010e:    0000        ..      DCW    0
        0x08000110:    20000a20     ..     DCD    536873504
        0x08000114:    00000004    ....    DCD    4
        0x08000118:    0000001f    ....    DCD    31
        0x0800011c:    40021018    ...@    DCD    1073877016
        0x08000120:    00000001    ....    DCD    1
        0x08000124:    40010000    ...@    DCD    1073807360
        0x08000128:    00000000    ....    DCD    0
        0x0800012c:    080022ad    ."..    DCD    134226605
        0x08000130:    080000c1    ....    DCD    134217921
    $t
    .text
    __aeabi_uidiv
    __aeabi_uidivmod
        0x08000134:    b530        0.      PUSH     {r4,r5,lr}
        0x08000136:    460b        .F      MOV      r3,r1
        0x08000138:    4601        .F      MOV      r1,r0
        0x0800013a:    2000        .       MOVS     r0,#0
        0x0800013c:    2220         "      MOVS     r2,#0x20
        0x0800013e:    2401        .$      MOVS     r4,#1
        0x08000140:    e009        ..      B        0x8000156 ; __aeabi_uidiv + 34
        0x08000142:    460d        .F      MOV      r5,r1
        0x08000144:    40d5        .@      LSRS     r5,r5,r2
        0x08000146:    429d        .B      CMP      r5,r3
        0x08000148:    d305        ..      BCC      0x8000156 ; __aeabi_uidiv + 34
        0x0800014a:    461d        .F      MOV      r5,r3
        0x0800014c:    4095        .@      LSLS     r5,r5,r2
        0x0800014e:    1b49        I.      SUBS     r1,r1,r5
        0x08000150:    4625        %F      MOV      r5,r4
        0x08000152:    4095        .@      LSLS     r5,r5,r2
        0x08000154:    1940        @.      ADDS     r0,r0,r5
        0x08000156:    4615        .F      MOV      r5,r2
        0x08000158:    1e52        R.      SUBS     r2,r2,#1
        0x0800015a:    2d00        .-      CMP      r5,#0
        0x0800015c:    dcf1        ..      BGT      0x8000142 ; __aeabi_uidiv + 14
        0x0800015e:    bd30        0.      POP      {r4,r5,pc}
    .text
    __aeabi_idiv
    __aeabi_idivmod
        0x08000160:    b570        p.      PUSH     {r4-r6,lr}
        0x08000162:    2400        .$      MOVS     r4,#0
        0x08000164:    4625        %F      MOV      r5,r4
        0x08000166:    2800        .(      CMP      r0,#0
        0x08000168:    da01        ..      BGE      0x800016e ; __aeabi_idiv + 14
        0x0800016a:    2401        .$      MOVS     r4,#1
        0x0800016c:    4240        @B      RSBS     r0,r0,#0
        0x0800016e:    2900        .)      CMP      r1,#0
        0x08000170:    da01        ..      BGE      0x8000176 ; __aeabi_idiv + 22
        0x08000172:    2501        .%      MOVS     r5,#1
        0x08000174:    4249        IB      RSBS     r1,r1,#0
        0x08000176:    f7ffffdd    ....    BL       __aeabi_uidiv ; 0x8000134
        0x0800017a:    42ac        .B      CMP      r4,r5
        0x0800017c:    d000        ..      BEQ      0x8000180 ; __aeabi_idiv + 32
        0x0800017e:    4240        @B      RSBS     r0,r0,#0
        0x08000180:    2c00        .,      CMP      r4,#0
        0x08000182:    d000        ..      BEQ      0x8000186 ; __aeabi_idiv + 38
        0x08000184:    4249        IB      RSBS     r1,r1,#0
        0x08000186:    bd70        p.      POP      {r4-r6,pc}
    .text
    __aeabi_memset
    __aeabi_memset4
    __aeabi_memset8
        0x08000188:    b2d2        ..      UXTB     r2,r2
        0x0800018a:    e001        ..      B        0x8000190 ; __aeabi_memset + 8
        0x0800018c:    7002        .p      STRB     r2,[r0,#0]
        0x0800018e:    1c40        @.      ADDS     r0,r0,#1
        0x08000190:    1e49        I.      SUBS     r1,r1,#1
        0x08000192:    d2fb        ..      BCS      0x800018c ; __aeabi_memset + 4
        0x08000194:    4770        pG      BX       lr
    __aeabi_memclr
    __aeabi_memclr4
    __aeabi_memclr8
        0x08000196:    2200        ."      MOVS     r2,#0
        0x08000198:    e7f6        ..      B        __aeabi_memset ; 0x8000188
    _memset$wrapper
        0x0800019a:    b510        ..      PUSH     {r4,lr}
        0x0800019c:    4613        .F      MOV      r3,r2
        0x0800019e:    460a        .F      MOV      r2,r1
        0x080001a0:    4604        .F      MOV      r4,r0
        0x080001a2:    4619        .F      MOV      r1,r3
        0x080001a4:    f7fffff0    ....    BL       __aeabi_memset ; 0x8000188
        0x080001a8:    4620         F      MOV      r0,r4
        0x080001aa:    bd10        ..      POP      {r4,pc}
    .text
    __aeabi_uldivmod
        0x080001ac:    b5f0        ..      PUSH     {r4-r7,lr}
        0x080001ae:    b41f        ..      PUSH     {r0-r4}
        0x080001b0:    4606        .F      MOV      r6,r0
        0x080001b2:    2000        .       MOVS     r0,#0
        0x080001b4:    b082        ..      SUB      sp,sp,#8
        0x080001b6:    4605        .F      MOV      r5,r0
        0x080001b8:    2440        @$      MOVS     r4,#0x40
        0x080001ba:    9101        ..      STR      r1,[sp,#4]
        0x080001bc:    9000        ..      STR      r0,[sp,#0]
        0x080001be:    e01b        ..      B        0x80001f8 ; __aeabi_uldivmod + 76
        0x080001c0:    9901        ..      LDR      r1,[sp,#4]
        0x080001c2:    4622        "F      MOV      r2,r4
        0x080001c4:    460f        .F      MOV      r7,r1
        0x080001c6:    4630        0F      MOV      r0,r6
        0x080001c8:    f000f842    ..B.    BL       __aeabi_llsr ; 0x8000250
        0x080001cc:    9a04        ..      LDR      r2,[sp,#0x10]
        0x080001ce:    9b05        ..      LDR      r3,[sp,#0x14]
        0x080001d0:    1a80        ..      SUBS     r0,r0,r2
        0x080001d2:    4199        .A      SBCS     r1,r1,r3
        0x080001d4:    d310        ..      BCC      0x80001f8 ; __aeabi_uldivmod + 76
        0x080001d6:    4610        .F      MOV      r0,r2
        0x080001d8:    4619        .F      MOV      r1,r3
        0x080001da:    4622        "F      MOV      r2,r4
        0x080001dc:    f000f828    ..(.    BL       __aeabi_llsl ; 0x8000230
        0x080001e0:    1a36        6.      SUBS     r6,r6,r0
        0x080001e2:    418f        .A      SBCS     r7,r7,r1
        0x080001e4:    9701        ..      STR      r7,[sp,#4]
        0x080001e6:    4622        "F      MOV      r2,r4
        0x080001e8:    2001        .       MOVS     r0,#1
        0x080001ea:    2100        .!      MOVS     r1,#0
        0x080001ec:    9f00        ..      LDR      r7,[sp,#0]
        0x080001ee:    f000f81f    ....    BL       __aeabi_llsl ; 0x8000230
        0x080001f2:    1838        8.      ADDS     r0,r7,r0
        0x080001f4:    414d        MA      ADCS     r5,r5,r1
        0x080001f6:    9000        ..      STR      r0,[sp,#0]
        0x080001f8:    4620         F      MOV      r0,r4
        0x080001fa:    1e64        d.      SUBS     r4,r4,#1
        0x080001fc:    2800        .(      CMP      r0,#0
        0x080001fe:    dcdf        ..      BGT      0x80001c0 ; __aeabi_uldivmod + 20
        0x08000200:    9b01        ..      LDR      r3,[sp,#4]
        0x08000202:    9800        ..      LDR      r0,[sp,#0]
        0x08000204:    4629        )F      MOV      r1,r5
        0x08000206:    4632        2F      MOV      r2,r6
        0x08000208:    b007        ..      ADD      sp,sp,#0x1c
        0x0800020a:    bdf0        ..      POP      {r4-r7,pc}
    .text
    __scatterload
    __scatterload_rt2
        0x0800020c:    4c06        .L      LDR      r4,[pc,#24] ; [0x8000228] = 0x8002d48
        0x0800020e:    2501        .%      MOVS     r5,#1
        0x08000210:    4e06        .N      LDR      r6,[pc,#24] ; [0x800022c] = 0x8002d68
        0x08000212:    e005        ..      B        0x8000220 ; __scatterload + 20
        0x08000214:    68e3        .h      LDR      r3,[r4,#0xc]
        0x08000216:    cc07        ..      LDM      r4!,{r0-r2}
        0x08000218:    432b        +C      ORRS     r3,r3,r5
        0x0800021a:    3c0c        .<      SUBS     r4,r4,#0xc
        0x0800021c:    4798        .G      BLX      r3
        0x0800021e:    3410        .4      ADDS     r4,r4,#0x10
        0x08000220:    42b4        .B      CMP      r4,r6
        0x08000222:    d3f7        ..      BCC      0x8000214 ; __scatterload + 8
        0x08000224:    f7ffff50    ..P.    BL       __main_after_scatterload ; 0x80000c8
    $d
        0x08000228:    08002d48    H-..    DCD    134229320
        0x0800022c:    08002d68    h-..    DCD    134229352
    $t
    .text
    __aeabi_llsl
    _ll_shift_l
        0x08000230:    b510        ..      PUSH     {r4,lr}
        0x08000232:    2a20         *      CMP      r2,#0x20
        0x08000234:    db04        ..      BLT      0x8000240 ; __aeabi_llsl + 16
        0x08000236:    4601        .F      MOV      r1,r0
        0x08000238:    3a20         :      SUBS     r2,r2,#0x20
        0x0800023a:    4091        .@      LSLS     r1,r1,r2
        0x0800023c:    2000        .       MOVS     r0,#0
        0x0800023e:    bd10        ..      POP      {r4,pc}
        0x08000240:    4091        .@      LSLS     r1,r1,r2
        0x08000242:    2320         #      MOVS     r3,#0x20
        0x08000244:    1a9c        ..      SUBS     r4,r3,r2
        0x08000246:    4603        .F      MOV      r3,r0
        0x08000248:    40e3        .@      LSRS     r3,r3,r4
        0x0800024a:    4319        .C      ORRS     r1,r1,r3
        0x0800024c:    4090        .@      LSLS     r0,r0,r2
        0x0800024e:    bd10        ..      POP      {r4,pc}
    .text
    __aeabi_llsr
    _ll_ushift_r
        0x08000250:    b510        ..      PUSH     {r4,lr}
        0x08000252:    2a20         *      CMP      r2,#0x20
        0x08000254:    db04        ..      BLT      0x8000260 ; __aeabi_llsr + 16
        0x08000256:    4608        .F      MOV      r0,r1
        0x08000258:    3a20         :      SUBS     r2,r2,#0x20
        0x0800025a:    40d0        .@      LSRS     r0,r0,r2
        0x0800025c:    2100        .!      MOVS     r1,#0
        0x0800025e:    bd10        ..      POP      {r4,pc}
        0x08000260:    460b        .F      MOV      r3,r1
        0x08000262:    40d3        .@      LSRS     r3,r3,r2
        0x08000264:    40d0        .@      LSRS     r0,r0,r2
        0x08000266:    2420         $      MOVS     r4,#0x20
        0x08000268:    1aa2        ..      SUBS     r2,r4,r2
        0x0800026a:    4091        .@      LSLS     r1,r1,r2
        0x0800026c:    4308        .C      ORRS     r0,r0,r1
        0x0800026e:    4619        .F      MOV      r1,r3
        0x08000270:    bd10        ..      POP      {r4,pc}
    .text
    __decompress
    __decompress1
        0x08000272:    b570        p.      PUSH     {r4-r6,lr}
        0x08000274:    188c        ..      ADDS     r4,r1,r2
        0x08000276:    7805        .x      LDRB     r5,[r0,#0]
        0x08000278:    1c40        @.      ADDS     r0,r0,#1
        0x0800027a:    076b        k.      LSLS     r3,r5,#29
        0x0800027c:    0f5b        [.      LSRS     r3,r3,#29
        0x0800027e:    d101        ..      BNE      0x8000284 ; __decompress + 18
        0x08000280:    7803        .x      LDRB     r3,[r0,#0]
        0x08000282:    1c40        @.      ADDS     r0,r0,#1
        0x08000284:    112a        *.      ASRS     r2,r5,#4
        0x08000286:    d106        ..      BNE      0x8000296 ; __decompress + 36
        0x08000288:    7802        .x      LDRB     r2,[r0,#0]
        0x0800028a:    1c40        @.      ADDS     r0,r0,#1
        0x0800028c:    e003        ..      B        0x8000296 ; __decompress + 36
        0x0800028e:    7806        .x      LDRB     r6,[r0,#0]
        0x08000290:    700e        .p      STRB     r6,[r1,#0]
        0x08000292:    1c40        @.      ADDS     r0,r0,#1
        0x08000294:    1c49        I.      ADDS     r1,r1,#1
        0x08000296:    1e5b        [.      SUBS     r3,r3,#1
        0x08000298:    d1f9        ..      BNE      0x800028e ; __decompress + 28
        0x0800029a:    072b        +.      LSLS     r3,r5,#28
        0x0800029c:    d405        ..      BMI      0x80002aa ; __decompress + 56
        0x0800029e:    2300        .#      MOVS     r3,#0
        0x080002a0:    1e52        R.      SUBS     r2,r2,#1
        0x080002a2:    d40d        ..      BMI      0x80002c0 ; __decompress + 78
        0x080002a4:    700b        .p      STRB     r3,[r1,#0]
        0x080002a6:    1c49        I.      ADDS     r1,r1,#1
        0x080002a8:    e7fa        ..      B        0x80002a0 ; __decompress + 46
        0x080002aa:    7803        .x      LDRB     r3,[r0,#0]
        0x080002ac:    1c40        @.      ADDS     r0,r0,#1
        0x080002ae:    1acb        ..      SUBS     r3,r1,r3
        0x080002b0:    1c92        ..      ADDS     r2,r2,#2
        0x080002b2:    e003        ..      B        0x80002bc ; __decompress + 74
        0x080002b4:    781d        .x      LDRB     r5,[r3,#0]
        0x080002b6:    700d        .p      STRB     r5,[r1,#0]
        0x080002b8:    1c49        I.      ADDS     r1,r1,#1
        0x080002ba:    1c5b        [.      ADDS     r3,r3,#1
        0x080002bc:    1e52        R.      SUBS     r2,r2,#1
        0x080002be:    d5f9        ..      BPL      0x80002b4 ; __decompress + 66
        0x080002c0:    42a1        .B      CMP      r1,r4
        0x080002c2:    d3d8        ..      BCC      0x8000276 ; __decompress + 4
        0x080002c4:    2000        .       MOVS     r0,#0
        0x080002c6:    bd70        p.      POP      {r4-r6,pc}
    i.AutoCalPllFactor
    AutoCalPllFactor
        0x080002c8:    b5ff        ..      PUSH     {r0-r7,lr}
        0x080002ca:    2000        .       MOVS     r0,#0
        0x080002cc:    b083        ..      SUB      sp,sp,#0xc
        0x080002ce:    460f        .F      MOV      r7,r1
        0x080002d0:    460e        .F      MOV      r6,r1
        0x080002d2:    4605        .F      MOV      r5,r0
        0x080002d4:    9001        ..      STR      r0,[sp,#4]
        0x080002d6:    b2e8        ..      UXTB     r0,r5
        0x080002d8:    2400        .$      MOVS     r4,#0
        0x080002da:    9000        ..      STR      r0,[sp,#0]
        0x080002dc:    9803        ..      LDR      r0,[sp,#0xc]
        0x080002de:    1c61        a.      ADDS     r1,r4,#1
        0x080002e0:    4348        HC      MULS     r0,r1,r0
        0x080002e2:    1c69        i.      ADDS     r1,r5,#1
        0x080002e4:    f7ffff26    ..&.    BL       __aeabi_uidiv ; 0x8000134
        0x080002e8:    42b8        .B      CMP      r0,r7
        0x080002ea:    d901        ..      BLS      0x80002f0 ; AutoCalPllFactor + 40
        0x080002ec:    1bc0        ..      SUBS     r0,r0,r7
        0x080002ee:    e000        ..      B        0x80002f2 ; AutoCalPllFactor + 42
        0x080002f0:    1a38        8.      SUBS     r0,r7,r0
        0x080002f2:    4286        .B      CMP      r6,r0
        0x080002f4:    d905        ..      BLS      0x8000302 ; AutoCalPllFactor + 58
        0x080002f6:    4606        .F      MOV      r6,r0
        0x080002f8:    9805        ..      LDR      r0,[sp,#0x14]
        0x080002fa:    7004        .p      STRB     r4,[r0,#0]
        0x080002fc:    9906        ..      LDR      r1,[sp,#0x18]
        0x080002fe:    9800        ..      LDR      r0,[sp,#0]
        0x08000300:    7008        .p      STRB     r0,[r1,#0]
        0x08000302:    2e00        ..      CMP      r6,#0
        0x08000304:    d008        ..      BEQ      0x8000318 ; AutoCalPllFactor + 80
        0x08000306:    1c64        d.      ADDS     r4,r4,#1
        0x08000308:    2c40        @,      CMP      r4,#0x40
        0x0800030a:    d3e7        ..      BCC      0x80002dc ; AutoCalPllFactor + 20
        0x0800030c:    9801        ..      LDR      r0,[sp,#4]
        0x0800030e:    2800        .(      CMP      r0,#0
        0x08000310:    d102        ..      BNE      0x8000318 ; AutoCalPllFactor + 80
        0x08000312:    1c6d        m.      ADDS     r5,r5,#1
        0x08000314:    2d04        .-      CMP      r5,#4
        0x08000316:    d3de        ..      BCC      0x80002d6 ; AutoCalPllFactor + 14
        0x08000318:    4630        0F      MOV      r0,r6
        0x0800031a:    b007        ..      ADD      sp,sp,#0x1c
        0x0800031c:    bdf0        ..      POP      {r4-r7,pc}
        0x0800031e:    0000        ..      MOVS     r0,r0
    i.BSP_SPI_BLE_Init
    BSP_SPI_BLE_Init
        0x08000320:    b510        ..      PUSH     {r4,lr}
        0x08000322:    4813        .H      LDR      r0,[pc,#76] ; [0x8000370] = 0x8002d30
        0x08000324:    b086        ..      SUB      sp,sp,#0x18
        0x08000326:    c80e        ..      LDM      r0!,{r1-r3}
        0x08000328:    466c        lF      MOV      r4,sp
        0x0800032a:    c40e        ..      STM      r4!,{r1-r3}
        0x0800032c:    c807        ..      LDM      r0,{r0-r2}
        0x0800032e:    c407        ..      STM      r4!,{r0-r2}
        0x08000330:    4c10        .L      LDR      r4,[pc,#64] ; [0x8000374] = 0x40003800
        0x08000332:    2100        .!      MOVS     r1,#0
        0x08000334:    4620         F      MOV      r0,r4
        0x08000336:    f001fbe4    ....    BL       SPI_CSInternalSelected ; 0x8001b02
        0x0800033a:    4620         F      MOV      r0,r4
        0x0800033c:    f001fcc4    ....    BL       SPIx_Configure ; 0x8001cc8
        0x08000340:    2101        .!      MOVS     r1,#1
        0x08000342:    4620         F      MOV      r0,r4
        0x08000344:    f001fbc6    ....    BL       SPI_BiDirectionalLineConfig ; 0x8001ad4
        0x08000348:    2100        .!      MOVS     r1,#0
        0x0800034a:    4620         F      MOV      r0,r4
        0x0800034c:    f001fbc2    ....    BL       SPI_BiDirectionalLineConfig ; 0x8001ad4
        0x08000350:    2300        .#      MOVS     r3,#0
        0x08000352:    461a        .F      MOV      r2,r3
        0x08000354:    4669        iF      MOV      r1,sp
        0x08000356:    4808        .H      LDR      r0,[pc,#32] ; [0x8000378] = 0x40020044
        0x08000358:    f001fd68    ..h.    BL       SPIx_DMA_Configure ; 0x8001e2c
        0x0800035c:    4806        .H      LDR      r0,[pc,#24] ; [0x8000378] = 0x40020044
        0x0800035e:    2300        .#      MOVS     r3,#0
        0x08000360:    461a        .F      MOV      r2,r3
        0x08000362:    a903        ..      ADD      r1,sp,#0xc
        0x08000364:    3014        .0      ADDS     r0,r0,#0x14
        0x08000366:    f001fd61    ..a.    BL       SPIx_DMA_Configure ; 0x8001e2c
        0x0800036a:    b006        ..      ADD      sp,sp,#0x18
        0x0800036c:    bd10        ..      POP      {r4,pc}
    $d
        0x0800036e:    0000        ..      DCW    0
        0x08000370:    08002d30    0-..    DCD    134229296
        0x08000374:    40003800    .8.@    DCD    1073756160
        0x08000378:    40020044    D..@    DCD    1073872964
    $t
    i.BleApp_Main
    BleApp_Main
        0x0800037c:    b5f8        ..      PUSH     {r3-r7,lr}
        0x0800037e:    4c1c        .L      LDR      r4,[pc,#112] ; [0x80003f0] = 0x20000284
        0x08000380:    220f        ."      MOVS     r2,#0xf
        0x08000382:    491a        .I      LDR      r1,[pc,#104] ; [0x80003ec] = 0x20000008
        0x08000384:    1ca0        ..      ADDS     r0,r4,#2
        0x08000386:    f000f9cb    ....    BL       Knl_CodeCpy ; 0x8000720
        0x0800038a:    2006        .       MOVS     r0,#6
        0x0800038c:    71a0        .q      STRB     r0,[r4,#6]
        0x0800038e:    8860        `.      LDRH     r0,[r4,#2]
        0x08000390:    4d18        .M      LDR      r5,[pc,#96] ; [0x80003f4] = 0x20000092
        0x08000392:    0081        ..      LSLS     r1,r0,#2
        0x08000394:    1840        @.      ADDS     r0,r0,r1
        0x08000396:    8060        `.      STRH     r0,[r4,#2]
        0x08000398:    2001        .       MOVS     r0,#1
        0x0800039a:    7028        (p      STRB     r0,[r5,#0]
        0x0800039c:    2002        .       MOVS     r0,#2
        0x0800039e:    7068        hp      STRB     r0,[r5,#1]
        0x080003a0:    2003        .       MOVS     r0,#3
        0x080003a2:    70a8        .p      STRB     r0,[r5,#2]
        0x080003a4:    2612        .&      MOVS     r6,#0x12
        0x080003a6:    2700        .'      MOVS     r7,#0
        0x080003a8:    4910        .I      LDR      r1,[pc,#64] ; [0x80003ec] = 0x20000008
        0x080003aa:    70ef        .p      STRB     r7,[r5,#3]
        0x080003ac:    7466        ft      STRB     r6,[r4,#0x11]
        0x080003ae:    4632        2F      MOV      r2,r6
        0x080003b0:    3114        .1      ADDS     r1,r1,#0x14
        0x080003b2:    19a0        ..      ADDS     r0,r4,r6
        0x080003b4:    f000f9b4    ....    BL       Knl_CodeCpy ; 0x8000720
        0x080003b8:    490c        .I      LDR      r1,[pc,#48] ; [0x80003ec] = 0x20000008
        0x080003ba:    200f        .       MOVS     r0,#0xf
        0x080003bc:    3120         1      ADDS     r1,r1,#0x20
        0x080003be:    7148        Hq      STRB     r0,[r1,#5]
        0x080003c0:    4620         F      MOV      r0,r4
        0x080003c2:    3020         0      ADDS     r0,r0,#0x20
        0x080003c4:    7446        Ft      STRB     r6,[r0,#0x11]
        0x080003c6:    4632        2F      MOV      r2,r6
        0x080003c8:    3012        .0      ADDS     r0,r0,#0x12
        0x080003ca:    1d49        I.      ADDS     r1,r1,#5
        0x080003cc:    f000f9a8    ....    BL       Knl_CodeCpy ; 0x8000720
        0x080003d0:    b672        r.      CPSID    i
        0x080003d2:    4809        .H      LDR      r0,[pc,#36] ; [0x80003f8] = 0x20000045
        0x080003d4:    2280        ."      MOVS     r2,#0x80
        0x080003d6:    7801        .x      LDRB     r1,[r0,#0]
        0x080003d8:    4311        .C      ORRS     r1,r1,r2
        0x080003da:    7001        .p      STRB     r1,[r0,#0]
        0x080003dc:    7828        (x      LDRB     r0,[r5,#0]
        0x080003de:    7020         p      STRB     r0,[r4,#0]
        0x080003e0:    80a7        ..      STRH     r7,[r4,#4]
        0x080003e2:    2004        .       MOVS     r0,#4
        0x080003e4:    7060        `p      STRB     r0,[r4,#1]
        0x080003e6:    b662        b.      CPSIE    i
        0x080003e8:    bdf8        ..      POP      {r3-r7,pc}
    $d
        0x080003ea:    0000        ..      DCW    0
        0x080003ec:    20000008    ...     DCD    536870920
        0x080003f0:    20000284    ...     DCD    536871556
        0x080003f4:    20000092    ...     DCD    536871058
        0x080003f8:    20000045    E..     DCD    536870981
    $t
    i.BleTxFIFOAddr_Get
    BleTxFIFOAddr_Get
        0x080003fc:    4801        .H      LDR      r0,[pc,#4] ; [0x8000404] = 0x200000b4
        0x080003fe:    6800        .h      LDR      r0,[r0,#0]
        0x08000400:    4770        pG      BX       lr
    $d
        0x08000402:    0000        ..      DCW    0
        0x08000404:    200000b4    ...     DCD    536871092
    $t
    i.Ble_SW_Init
    Ble_SW_Init
        0x08000408:    b510        ..      PUSH     {r4,lr}
        0x0800040a:    b672        r.      CPSID    i
        0x0800040c:    f002fa22    ..".    BL       initBLEsw ; 0x8002854
        0x08000410:    f002fa32    ..2.    BL       initInt ; 0x8002878
        0x08000414:    2100        .!      MOVS     r1,#0
        0x08000416:    2019        .       MOVS     r0,#0x19
        0x08000418:    0180        ..      LSLS     r0,r0,#6
        0x0800041a:    f001f921    ..!.    BL       RF_Tmr_Periodic_initial ; 0x8001660
        0x0800041e:    f002fa35    ..5.    BL       initLL ; 0x800288c
        0x08000422:    f001fa47    ..G.    BL       RF_WTR_intOn ; 0x80018b4
        0x08000426:    b662        b.      CPSIE    i
        0x08000428:    bd10        ..      POP      {r4,pc}
        0x0800042a:    0000        ..      MOVS     r0,r0
    i.DMA1_Channel2_3_IRQHandler
    DMA1_Channel2_3_IRQHandler
        0x0800042c:    b570        p.      PUSH     {r4-r6,lr}
        0x0800042e:    2020                MOVS     r0,#0x20
        0x08000430:    f000f856    ..V.    BL       DMA_GetITStatus ; 0x80004e0
        0x08000434:    2401        .$      MOVS     r4,#1
        0x08000436:    4d09        .M      LDR      r5,[pc,#36] ; [0x800045c] = 0x200001e2
        0x08000438:    2800        .(      CMP      r0,#0
        0x0800043a:    d003        ..      BEQ      0x8000444 ; DMA1_Channel2_3_IRQHandler + 24
        0x0800043c:    706c        lp      STRB     r4,[r5,#1]
        0x0800043e:    2020                MOVS     r0,#0x20
        0x08000440:    f000f82a    ..*.    BL       DMA_ClearITPendingBit ; 0x8000498
        0x08000444:    2601        .&      MOVS     r6,#1
        0x08000446:    0276        v.      LSLS     r6,r6,#9
        0x08000448:    4630        0F      MOV      r0,r6
        0x0800044a:    f000f849    ..I.    BL       DMA_GetITStatus ; 0x80004e0
        0x0800044e:    2800        .(      CMP      r0,#0
        0x08000450:    d003        ..      BEQ      0x800045a ; DMA1_Channel2_3_IRQHandler + 46
        0x08000452:    702c        ,p      STRB     r4,[r5,#0]
        0x08000454:    4630        0F      MOV      r0,r6
        0x08000456:    f000f81f    ....    BL       DMA_ClearITPendingBit ; 0x8000498
        0x0800045a:    bd70        p.      POP      {r4-r6,pc}
    $d
        0x0800045c:    200001e2    ...     DCD    536871394
    $t
    i.DMA1_Channel4_5_IRQHandler
    DMA1_Channel4_5_IRQHandler
        0x08000460:    b570        p.      PUSH     {r4-r6,lr}
        0x08000462:    2601        .&      MOVS     r6,#1
        0x08000464:    0376        v.      LSLS     r6,r6,#13
        0x08000466:    4630        0F      MOV      r0,r6
        0x08000468:    f000f83a    ..:.    BL       DMA_GetITStatus ; 0x80004e0
        0x0800046c:    2401        .$      MOVS     r4,#1
        0x0800046e:    4d09        .M      LDR      r5,[pc,#36] ; [0x8000494] = 0x200001e2
        0x08000470:    2800        .(      CMP      r0,#0
        0x08000472:    d003        ..      BEQ      0x800047c ; DMA1_Channel4_5_IRQHandler + 28
        0x08000474:    706c        lp      STRB     r4,[r5,#1]
        0x08000476:    4630        0F      MOV      r0,r6
        0x08000478:    f000f80e    ....    BL       DMA_ClearITPendingBit ; 0x8000498
        0x0800047c:    2601        .&      MOVS     r6,#1
        0x0800047e:    0476        v.      LSLS     r6,r6,#17
        0x08000480:    4630        0F      MOV      r0,r6
        0x08000482:    f000f82d    ..-.    BL       DMA_GetITStatus ; 0x80004e0
        0x08000486:    2800        .(      CMP      r0,#0
        0x08000488:    d003        ..      BEQ      0x8000492 ; DMA1_Channel4_5_IRQHandler + 50
        0x0800048a:    702c        ,p      STRB     r4,[r5,#0]
        0x0800048c:    4630        0F      MOV      r0,r6
        0x0800048e:    f000f803    ....    BL       DMA_ClearITPendingBit ; 0x8000498
        0x08000492:    bd70        p.      POP      {r4-r6,pc}
    $d
        0x08000494:    200001e2    ...     DCD    536871394
    $t
    i.DMA_ClearITPendingBit
    DMA_ClearITPendingBit
        0x08000498:    4901        .I      LDR      r1,[pc,#4] ; [0x80004a0] = 0x40020000
        0x0800049a:    6048        H`      STR      r0,[r1,#4]
        0x0800049c:    4770        pG      BX       lr
    $d
        0x0800049e:    0000        ..      DCW    0
        0x080004a0:    40020000    ...@    DCD    1073872896
    $t
    i.DMA_Cmd
    DMA_Cmd
        0x080004a4:    6802        .h      LDR      r2,[r0,#0]
        0x080004a6:    0852        R.      LSRS     r2,r2,#1
        0x080004a8:    0052        R.      LSLS     r2,r2,#1
        0x080004aa:    430a        .C      ORRS     r2,r2,r1
        0x080004ac:    6002        .`      STR      r2,[r0,#0]
        0x080004ae:    4770        pG      BX       lr
    i.DMA_DeInit
    DMA_DeInit
        0x080004b0:    b510        ..      PUSH     {r4,lr}
        0x080004b2:    6801        .h      LDR      r1,[r0,#0]
        0x080004b4:    0849        I.      LSRS     r1,r1,#1
        0x080004b6:    0049        I.      LSLS     r1,r1,#1
        0x080004b8:    6001        .`      STR      r1,[r0,#0]
        0x080004ba:    2100        .!      MOVS     r1,#0
        0x080004bc:    6001        .`      STR      r1,[r0,#0]
        0x080004be:    6041        A`      STR      r1,[r0,#4]
        0x080004c0:    6081        .`      STR      r1,[r0,#8]
        0x080004c2:    60c1        .`      STR      r1,[r0,#0xc]
        0x080004c4:    b2c0        ..      UXTB     r0,r0
        0x080004c6:    2105        .!      MOVS     r1,#5
        0x080004c8:    3808        .8      SUBS     r0,r0,#8
        0x080004ca:    f7fffe33    ..3.    BL       __aeabi_uidiv ; 0x8000134
        0x080004ce:    210f        .!      MOVS     r1,#0xf
        0x080004d0:    4081        .@      LSLS     r1,r1,r0
        0x080004d2:    4802        .H      LDR      r0,[pc,#8] ; [0x80004dc] = 0x40020000
        0x080004d4:    6842        Bh      LDR      r2,[r0,#4]
        0x080004d6:    4311        .C      ORRS     r1,r1,r2
        0x080004d8:    6041        A`      STR      r1,[r0,#4]
        0x080004da:    bd10        ..      POP      {r4,pc}
    $d
        0x080004dc:    40020000    ...@    DCD    1073872896
    $t
    i.DMA_GetITStatus
    DMA_GetITStatus
        0x080004e0:    4903        .I      LDR      r1,[pc,#12] ; [0x80004f0] = 0x40020000
        0x080004e2:    6809        .h      LDR      r1,[r1,#0]
        0x080004e4:    4201        .B      TST      r1,r0
        0x080004e6:    d001        ..      BEQ      0x80004ec ; DMA_GetITStatus + 12
        0x080004e8:    2001        .       MOVS     r0,#1
        0x080004ea:    4770        pG      BX       lr
        0x080004ec:    2000        .       MOVS     r0,#0
        0x080004ee:    4770        pG      BX       lr
    $d
        0x080004f0:    40020000    ...@    DCD    1073872896
    $t
    i.DMA_ITConfig
    DMA_ITConfig
        0x080004f4:    2a00        .*      CMP      r2,#0
        0x080004f6:    6802        .h      LDR      r2,[r0,#0]
        0x080004f8:    d001        ..      BEQ      0x80004fe ; DMA_ITConfig + 10
        0x080004fa:    430a        .C      ORRS     r2,r2,r1
        0x080004fc:    e000        ..      B        0x8000500 ; DMA_ITConfig + 12
        0x080004fe:    438a        .C      BICS     r2,r2,r1
        0x08000500:    6002        .`      STR      r2,[r0,#0]
        0x08000502:    4770        pG      BX       lr
    i.DMA_Init
    DMA_Init
        0x08000504:    b510        ..      PUSH     {r4,lr}
        0x08000506:    7a0a        .z      LDRB     r2,[r1,#8]
        0x08000508:    7d8b        .}      LDRB     r3,[r1,#0x16]
        0x0800050a:    7c4c        L|      LDRB     r4,[r1,#0x11]
        0x0800050c:    431a        .C      ORRS     r2,r2,r3
        0x0800050e:    7c0b        .|      LDRB     r3,[r1,#0x10]
        0x08000510:    4323        #C      ORRS     r3,r3,r4
        0x08000512:    431a        .C      ORRS     r2,r2,r3
        0x08000514:    8a4b        K.      LDRH     r3,[r1,#0x12]
        0x08000516:    431a        .C      ORRS     r2,r2,r3
        0x08000518:    8a8b        ..      LDRH     r3,[r1,#0x14]
        0x0800051a:    431a        .C      ORRS     r2,r2,r3
        0x0800051c:    8b0b        ..      LDRH     r3,[r1,#0x18]
        0x0800051e:    431a        .C      ORRS     r2,r2,r3
        0x08000520:    8b4b        K.      LDRH     r3,[r1,#0x1a]
        0x08000522:    431a        .C      ORRS     r2,r2,r3
        0x08000524:    6803        .h      LDR      r3,[r0,#0]
        0x08000526:    4c09        .L      LDR      r4,[pc,#36] ; [0x800054c] = 0xffff800f
        0x08000528:    4023        #@      ANDS     r3,r3,r4
        0x0800052a:    431a        .C      ORRS     r2,r2,r3
        0x0800052c:    6002        .`      STR      r2,[r0,#0]
        0x0800052e:    6802        .h      LDR      r2,[r0,#0]
        0x08000530:    2301        .#      MOVS     r3,#1
        0x08000532:    03db        ..      LSLS     r3,r3,#15
        0x08000534:    439a        .C      BICS     r2,r2,r3
        0x08000536:    8b8b        ..      LDRH     r3,[r1,#0x1c]
        0x08000538:    431a        .C      ORRS     r2,r2,r3
        0x0800053a:    6002        .`      STR      r2,[r0,#0]
        0x0800053c:    68ca        .h      LDR      r2,[r1,#0xc]
        0x0800053e:    6042        B`      STR      r2,[r0,#4]
        0x08000540:    680a        .h      LDR      r2,[r1,#0]
        0x08000542:    6082        .`      STR      r2,[r0,#8]
        0x08000544:    6849        Ih      LDR      r1,[r1,#4]
        0x08000546:    60c1        .`      STR      r1,[r0,#0xc]
        0x08000548:    bd10        ..      POP      {r4,pc}
    $d
        0x0800054a:    0000        ..      DCW    0
        0x0800054c:    ffff800f    ....    DCD    4294934543
    $t
    i.DMA_StructInit
    DMA_StructInit
        0x08000550:    2100        .!      MOVS     r1,#0
        0x08000552:    6001        .`      STR      r1,[r0,#0]
        0x08000554:    6041        A`      STR      r1,[r0,#4]
        0x08000556:    7201        .r      STRB     r1,[r0,#8]
        0x08000558:    60c1        .`      STR      r1,[r0,#0xc]
        0x0800055a:    7401        .t      STRB     r1,[r0,#0x10]
        0x0800055c:    7441        At      STRB     r1,[r0,#0x11]
        0x0800055e:    8241        A.      STRH     r1,[r0,#0x12]
        0x08000560:    8281        ..      STRH     r1,[r0,#0x14]
        0x08000562:    7581        .u      STRB     r1,[r0,#0x16]
        0x08000564:    8301        ..      STRH     r1,[r0,#0x18]
        0x08000566:    8341        A.      STRH     r1,[r0,#0x1a]
        0x08000568:    8381        ..      STRH     r1,[r0,#0x1c]
        0x0800056a:    4770        pG      BX       lr
    i.EXTI4_15_IRQHandler
    EXTI4_15_IRQHandler
        0x0800056c:    b570        p.      PUSH     {r4-r6,lr}
        0x0800056e:    24ff        .$      MOVS     r4,#0xff
        0x08000570:    3401        .4      ADDS     r4,#1
        0x08000572:    4620         F      MOV      r0,r4
        0x08000574:    f000f81c    ....    BL       EXTI_GetITStatus ; 0x80005b0
        0x08000578:    2800        .(      CMP      r0,#0
        0x0800057a:    d00f        ..      BEQ      0x800059c ; EXTI4_15_IRQHandler + 48
        0x0800057c:    4620         F      MOV      r0,r4
        0x0800057e:    f000f811    ....    BL       EXTI_ClearITPendingBit ; 0x80005a4
        0x08000582:    4d07        .M      LDR      r5,[pc,#28] ; [0x80005a0] = 0x48000400
        0x08000584:    e004        ..      B        0x8000590 ; EXTI4_15_IRQHandler + 36
        0x08000586:    f000fc77    ..w.    BL       LL_GPIO_Isr ; 0x8000e78
        0x0800058a:    2001        .       MOVS     r0,#1
        0x0800058c:    f002f930    ..0.    BL       delay_us ; 0x80027f0
        0x08000590:    4621        !F      MOV      r1,r4
        0x08000592:    4628        (F      MOV      r0,r5
        0x08000594:    f000f8b3    ....    BL       GPIO_ReadInputDataBit ; 0x80006fe
        0x08000598:    2800        .(      CMP      r0,#0
        0x0800059a:    d1f4        ..      BNE      0x8000586 ; EXTI4_15_IRQHandler + 26
        0x0800059c:    bd70        p.      POP      {r4-r6,pc}
    $d
        0x0800059e:    0000        ..      DCW    0
        0x080005a0:    48000400    ...H    DCD    1207960576
    $t
    i.EXTI_ClearITPendingBit
    EXTI_ClearITPendingBit
        0x080005a4:    4901        .I      LDR      r1,[pc,#4] ; [0x80005ac] = 0x40010400
        0x080005a6:    6148        Ha      STR      r0,[r1,#0x14]
        0x080005a8:    4770        pG      BX       lr
    $d
        0x080005aa:    0000        ..      DCW    0
        0x080005ac:    40010400    ...@    DCD    1073808384
    $t
    i.EXTI_GetITStatus
    EXTI_GetITStatus
        0x080005b0:    4905        .I      LDR      r1,[pc,#20] ; [0x80005c8] = 0x40010400
        0x080005b2:    694a        Ji      LDR      r2,[r1,#0x14]
        0x080005b4:    4202        .B      TST      r2,r0
        0x080005b6:    d004        ..      BEQ      0x80005c2 ; EXTI_GetITStatus + 18
        0x080005b8:    6809        .h      LDR      r1,[r1,#0]
        0x080005ba:    4201        .B      TST      r1,r0
        0x080005bc:    d001        ..      BEQ      0x80005c2 ; EXTI_GetITStatus + 18
        0x080005be:    2001        .       MOVS     r0,#1
        0x080005c0:    4770        pG      BX       lr
        0x080005c2:    2000        .       MOVS     r0,#0
        0x080005c4:    4770        pG      BX       lr
    $d
        0x080005c6:    0000        ..      DCW    0
        0x080005c8:    40010400    ...@    DCD    1073808384
    $t
    i.EXTI_Init
    EXTI_Init
        0x080005cc:    b500        ..      PUSH     {lr}
        0x080005ce:    4603        .F      MOV      r3,r0
        0x080005d0:    6800        .h      LDR      r0,[r0,#0]
        0x080005d2:    f002f91d    ....    BL       exEXTI_LineDisable ; 0x8002810
        0x080005d6:    7998        .y      LDRB     r0,[r3,#6]
        0x080005d8:    2800        .(      CMP      r0,#0
        0x080005da:    d01a        ..      BEQ      0x8000612 ; EXTI_Init + 70
        0x080005dc:    7919        .y      LDRB     r1,[r3,#4]
        0x080005de:    4810        .H      LDR      r0,[pc,#64] ; [0x8000620] = 0x40010400
        0x080005e0:    2900        .)      CMP      r1,#0
        0x080005e2:    d009        ..      BEQ      0x80005f8 ; EXTI_Init + 44
        0x080005e4:    6841        Ah      LDR      r1,[r0,#4]
        0x080005e6:    681a        .h      LDR      r2,[r3,#0]
        0x080005e8:    4311        .C      ORRS     r1,r1,r2
        0x080005ea:    6041        A`      STR      r1,[r0,#4]
        0x080005ec:    7959        Yy      LDRB     r1,[r3,#5]
        0x080005ee:    2902        .)      CMP      r1,#2
        0x080005f0:    d007        ..      BEQ      0x8000602 ; EXTI_Init + 54
        0x080005f2:    2900        .)      CMP      r1,#0
        0x080005f4:    d00e        ..      BEQ      0x8000614 ; EXTI_Init + 72
        0x080005f6:    e008        ..      B        0x800060a ; EXTI_Init + 62
        0x080005f8:    6801        .h      LDR      r1,[r0,#0]
        0x080005fa:    681a        .h      LDR      r2,[r3,#0]
        0x080005fc:    4311        .C      ORRS     r1,r1,r2
        0x080005fe:    6001        .`      STR      r1,[r0,#0]
        0x08000600:    e7f4        ..      B        0x80005ec ; EXTI_Init + 32
        0x08000602:    6881        .h      LDR      r1,[r0,#8]
        0x08000604:    681a        .h      LDR      r2,[r3,#0]
        0x08000606:    4311        .C      ORRS     r1,r1,r2
        0x08000608:    6081        .`      STR      r1,[r0,#8]
        0x0800060a:    68c1        .h      LDR      r1,[r0,#0xc]
        0x0800060c:    681a        .h      LDR      r2,[r3,#0]
        0x0800060e:    4311        .C      ORRS     r1,r1,r2
        0x08000610:    60c1        .`      STR      r1,[r0,#0xc]
        0x08000612:    bd00        ..      POP      {pc}
        0x08000614:    6881        .h      LDR      r1,[r0,#8]
        0x08000616:    681a        .h      LDR      r2,[r3,#0]
        0x08000618:    4311        .C      ORRS     r1,r1,r2
        0x0800061a:    6081        .`      STR      r1,[r0,#8]
        0x0800061c:    bd00        ..      POP      {pc}
    $d
        0x0800061e:    0000        ..      DCW    0
        0x08000620:    40010400    ...@    DCD    1073808384
    $t
    i.EXTI_LineConfig
    EXTI_LineConfig
        0x08000624:    088b        ..      LSRS     r3,r1,#2
        0x08000626:    4a08        .J      LDR      r2,[pc,#32] ; [0x8000648] = 0x40010000
        0x08000628:    b510        ..      PUSH     {r4,lr}
        0x0800062a:    009b        ..      LSLS     r3,r3,#2
        0x0800062c:    189a        ..      ADDS     r2,r3,r2
        0x0800062e:    6893        .h      LDR      r3,[r2,#8]
        0x08000630:    0789        ..      LSLS     r1,r1,#30
        0x08000632:    0f09        ..      LSRS     r1,r1,#28
        0x08000634:    240f        .$      MOVS     r4,#0xf
        0x08000636:    408c        .@      LSLS     r4,r4,r1
        0x08000638:    43a3        .C      BICS     r3,r3,r4
        0x0800063a:    6093        .`      STR      r3,[r2,#8]
        0x0800063c:    6893        .h      LDR      r3,[r2,#8]
        0x0800063e:    4088        .@      LSLS     r0,r0,r1
        0x08000640:    4303        .C      ORRS     r3,r3,r0
        0x08000642:    6093        .`      STR      r3,[r2,#8]
        0x08000644:    bd10        ..      POP      {r4,pc}
    $d
        0x08000646:    0000        ..      DCW    0
        0x08000648:    40010000    ...@    DCD    1073807360
    $t
    i.ErrorEntry
    ErrorEntry
        0x0800064c:    b672        r.      CPSID    i
        0x0800064e:    2800        .(      CMP      r0,#0
        0x08000650:    d000        ..      BEQ      0x8000654 ; ErrorEntry + 8
        0x08000652:    e7fe        ..      B        0x8000652 ; ErrorEntry + 6
        0x08000654:    b662        b.      CPSIE    i
        0x08000656:    4770        pG      BX       lr
    i.GPIO_Init
    GPIO_Init
        0x08000658:    b5f0        ..      PUSH     {r4-r7,lr}
        0x0800065a:    78ca        .x      LDRB     r2,[r1,#3]
        0x0800065c:    0713        ..      LSLS     r3,r2,#28
        0x0800065e:    0f1b        ..      LSRS     r3,r3,#28
        0x08000660:    06d2        ..      LSLS     r2,r2,#27
        0x08000662:    d501        ..      BPL      0x8000668 ; GPIO_Init + 16
        0x08000664:    788a        .x      LDRB     r2,[r1,#2]
        0x08000666:    4313        .C      ORRS     r3,r3,r2
        0x08000668:    2200        ."      MOVS     r2,#0
        0x0800066a:    0694        ..      LSLS     r4,r2,#26
        0x0800066c:    0e24        $.      LSRS     r4,r4,#24
        0x0800066e:    880e        ..      LDRH     r6,[r1,#0]
        0x08000670:    2501        .%      MOVS     r5,#1
        0x08000672:    4095        .@      LSLS     r5,r5,r2
        0x08000674:    422e        .B      TST      r6,r5
        0x08000676:    d007        ..      BEQ      0x8000688 ; GPIO_Init + 48
        0x08000678:    6805        .h      LDR      r5,[r0,#0]
        0x0800067a:    260f        .&      MOVS     r6,#0xf
        0x0800067c:    40a6        .@      LSLS     r6,r6,r4
        0x0800067e:    43b5        .C      BICS     r5,r5,r6
        0x08000680:    461e        .F      MOV      r6,r3
        0x08000682:    40a6        .@      LSLS     r6,r6,r4
        0x08000684:    4335        5C      ORRS     r5,r5,r6
        0x08000686:    6005        .`      STR      r5,[r0,#0]
        0x08000688:    1c52        R.      ADDS     r2,r2,#1
        0x0800068a:    b2d2        ..      UXTB     r2,r2
        0x0800068c:    2a08        .*      CMP      r2,#8
        0x0800068e:    d3ec        ..      BCC      0x800066a ; GPIO_Init + 18
        0x08000690:    880a        ..      LDRH     r2,[r1,#0]
        0x08000692:    1d07        ..      ADDS     r7,r0,#4
        0x08000694:    0a12        ..      LSRS     r2,r2,#8
        0x08000696:    4694        .F      MOV      r12,r2
        0x08000698:    2200        ."      MOVS     r2,#0
        0x0800069a:    0694        ..      LSLS     r4,r2,#26
        0x0800069c:    0e24        $.      LSRS     r4,r4,#24
        0x0800069e:    2501        .%      MOVS     r5,#1
        0x080006a0:    4095        .@      LSLS     r5,r5,r2
        0x080006a2:    4666        fF      MOV      r6,r12
        0x080006a4:    4235        5B      TST      r5,r6
        0x080006a6:    d007        ..      BEQ      0x80006b8 ; GPIO_Init + 96
        0x080006a8:    683d        =h      LDR      r5,[r7,#0]
        0x080006aa:    260f        .&      MOVS     r6,#0xf
        0x080006ac:    40a6        .@      LSLS     r6,r6,r4
        0x080006ae:    43b5        .C      BICS     r5,r5,r6
        0x080006b0:    461e        .F      MOV      r6,r3
        0x080006b2:    40a6        .@      LSLS     r6,r6,r4
        0x080006b4:    4335        5C      ORRS     r5,r5,r6
        0x080006b6:    603d        =`      STR      r5,[r7,#0]
        0x080006b8:    1c52        R.      ADDS     r2,r2,#1
        0x080006ba:    b2d2        ..      UXTB     r2,r2
        0x080006bc:    2a08        .*      CMP      r2,#8
        0x080006be:    d3ec        ..      BCC      0x800069a ; GPIO_Init + 66
        0x080006c0:    78ca        .x      LDRB     r2,[r1,#3]
        0x080006c2:    2a28        (*      CMP      r2,#0x28
        0x080006c4:    d006        ..      BEQ      0x80006d4 ; GPIO_Init + 124
        0x080006c6:    2a48        H*      CMP      r2,#0x48
        0x080006c8:    d103        ..      BNE      0x80006d2 ; GPIO_Init + 122
        0x080006ca:    6902        .i      LDR      r2,[r0,#0x10]
        0x080006cc:    8809        ..      LDRH     r1,[r1,#0]
        0x080006ce:    430a        .C      ORRS     r2,r2,r1
        0x080006d0:    6102        .a      STR      r2,[r0,#0x10]
        0x080006d2:    bdf0        ..      POP      {r4-r7,pc}
        0x080006d4:    6942        Bi      LDR      r2,[r0,#0x14]
        0x080006d6:    8809        ..      LDRH     r1,[r1,#0]
        0x080006d8:    430a        .C      ORRS     r2,r2,r1
        0x080006da:    6142        Ba      STR      r2,[r0,#0x14]
        0x080006dc:    bdf0        ..      POP      {r4-r7,pc}
    i.GPIO_PinAFConfig
    GPIO_PinAFConfig
        0x080006de:    074b        K.      LSLS     r3,r1,#29
        0x080006e0:    b510        ..      PUSH     {r4,lr}
        0x080006e2:    0edb        ..      LSRS     r3,r3,#27
        0x080006e4:    2908        .)      CMP      r1,#8
        0x080006e6:    d201        ..      BCS      0x80006ec ; GPIO_PinAFConfig + 14
        0x080006e8:    3020         0      ADDS     r0,r0,#0x20
        0x080006ea:    e000        ..      B        0x80006ee ; GPIO_PinAFConfig + 16
        0x080006ec:    3024        $0      ADDS     r0,r0,#0x24
        0x080006ee:    240f        .$      MOVS     r4,#0xf
        0x080006f0:    409c        .@      LSLS     r4,r4,r3
        0x080006f2:    6801        .h      LDR      r1,[r0,#0]
        0x080006f4:    409a        .@      LSLS     r2,r2,r3
        0x080006f6:    43a1        .C      BICS     r1,r1,r4
        0x080006f8:    4311        .C      ORRS     r1,r1,r2
        0x080006fa:    6001        .`      STR      r1,[r0,#0]
        0x080006fc:    bd10        ..      POP      {r4,pc}
    i.GPIO_ReadInputDataBit
    GPIO_ReadInputDataBit
        0x080006fe:    6880        .h      LDR      r0,[r0,#8]
        0x08000700:    4008        .@      ANDS     r0,r0,r1
        0x08000702:    d000        ..      BEQ      0x8000706 ; GPIO_ReadInputDataBit + 8
        0x08000704:    2001        .       MOVS     r0,#1
        0x08000706:    4770        pG      BX       lr
    i.GPIO_ResetBits
    GPIO_ResetBits
        0x08000708:    6141        Aa      STR      r1,[r0,#0x14]
        0x0800070a:    4770        pG      BX       lr
    i.GPIO_SetBits
    GPIO_SetBits
        0x0800070c:    6101        .a      STR      r1,[r0,#0x10]
        0x0800070e:    4770        pG      BX       lr
    i.GPIO_StructInit
    GPIO_StructInit
        0x08000710:    2100        .!      MOVS     r1,#0
        0x08000712:    43c9        .C      MVNS     r1,r1
        0x08000714:    8001        ..      STRH     r1,[r0,#0]
        0x08000716:    2102        .!      MOVS     r1,#2
        0x08000718:    7081        .p      STRB     r1,[r0,#2]
        0x0800071a:    2104        .!      MOVS     r1,#4
        0x0800071c:    70c1        .p      STRB     r1,[r0,#3]
        0x0800071e:    4770        pG      BX       lr
    i.Knl_CodeCpy
    Knl_CodeCpy
        0x08000720:    2a00        .*      CMP      r2,#0
        0x08000722:    d005        ..      BEQ      0x8000730 ; Knl_CodeCpy + 16
        0x08000724:    1e52        R.      SUBS     r2,r2,#1
        0x08000726:    0612        ..      LSLS     r2,r2,#24
        0x08000728:    0e12        ..      LSRS     r2,r2,#24
        0x0800072a:    5c8b        .\      LDRB     r3,[r1,r2]
        0x0800072c:    5483        .T      STRB     r3,[r0,r2]
        0x0800072e:    d1f9        ..      BNE      0x8000724 ; Knl_CodeCpy + 4
        0x08000730:    4770        pG      BX       lr
    i.Knl_MemComp_Isr
    Knl_MemComp_Isr
        0x08000732:    b430        0.      PUSH     {r4,r5}
        0x08000734:    2300        .#      MOVS     r3,#0
        0x08000736:    2a00        .*      CMP      r2,#0
        0x08000738:    d907        ..      BLS      0x800074a ; Knl_MemComp_Isr + 24
        0x0800073a:    5ccc        .\      LDRB     r4,[r1,r3]
        0x0800073c:    5cc5        .\      LDRB     r5,[r0,r3]
        0x0800073e:    42ac        .B      CMP      r4,r5
        0x08000740:    d103        ..      BNE      0x800074a ; Knl_MemComp_Isr + 24
        0x08000742:    1c5b        [.      ADDS     r3,r3,#1
        0x08000744:    b2db        ..      UXTB     r3,r3
        0x08000746:    4293        .B      CMP      r3,r2
        0x08000748:    d3f7        ..      BCC      0x800073a ; Knl_MemComp_Isr + 8
        0x0800074a:    1ad0        ..      SUBS     r0,r2,r3
        0x0800074c:    bc30        0.      POP      {r4,r5}
        0x0800074e:    b2c0        ..      UXTB     r0,r0
        0x08000750:    4770        pG      BX       lr
        0x08000752:    0000        ..      MOVS     r0,r0
    i.LLTimer_Isr
    LLTimer_Isr
        0x08000754:    b5f8        ..      PUSH     {r3-r7,lr}
        0x08000756:    48fc        .H      LDR      r0,[pc,#1008] ; [0x8000b48] = 0x20000042
        0x08000758:    4dfc        .M      LDR      r5,[pc,#1008] ; [0x8000b4c] = 0x20000070
        0x0800075a:    7800        .x      LDRB     r0,[r0,#0]
        0x0800075c:    4efc        .N      LDR      r6,[pc,#1008] ; [0x8000b50] = 0x200000a0
        0x0800075e:    4cfd        .L      LDR      r4,[pc,#1012] ; [0x8000b54] = 0x20000050
        0x08000760:    4ffd        .O      LDR      r7,[pc,#1012] ; [0x8000b58] = 0x2000004c
        0x08000762:    280c        .(      CMP      r0,#0xc
        0x08000764:    d038        8.      BEQ      0x80007d8 ; LLTimer_Isr + 132
        0x08000766:    6838        8h      LDR      r0,[r7,#0]
        0x08000768:    466a        jF      MOV      r2,sp
        0x0800076a:    8841        A.      LDRH     r1,[r0,#2]
        0x0800076c:    8011        ..      STRH     r1,[r2,#0]
        0x0800076e:    4afb        .J      LDR      r2,[pc,#1004] ; [0x8000b5c] = 0x2000009e
        0x08000770:    8812        ..      LDRH     r2,[r2,#0]
        0x08000772:    4291        .B      CMP      r1,r2
        0x08000774:    d175        u.      BNE      0x8000862 ; LLTimer_Isr + 270
        0x08000776:    4669        iF      MOV      r1,sp
        0x08000778:    780a        .x      LDRB     r2,[r1,#0]
        0x0800077a:    49f9        .I      LDR      r1,[pc,#996] ; [0x8000b60] = 0x20000044
        0x0800077c:    780b        .x      LDRB     r3,[r1,#0]
        0x0800077e:    18d2        ..      ADDS     r2,r2,r3
        0x08000780:    700a        .p      STRB     r2,[r1,#0]
        0x08000782:    7901        .y      LDRB     r1,[r0,#4]
        0x08000784:    2902        .)      CMP      r1,#2
        0x08000786:    d26d        m.      BCS      0x8000864 ; LLTimer_Isr + 272
        0x08000788:    2900        .)      CMP      r1,#0
        0x0800078a:    d06d        m.      BEQ      0x8000868 ; LLTimer_Isr + 276
        0x0800078c:    2005        .       MOVS     r0,#5
        0x0800078e:    f000ffd1    ....    BL       RF_Tmr_Periodic_set_ISR ; 0x8001734
        0x08000792:    49f4        .I      LDR      r1,[pc,#976] ; [0x8000b64] = 0x20000090
        0x08000794:    4bf4        .K      LDR      r3,[pc,#976] ; [0x8000b68] = 0x271
        0x08000796:    8808        ..      LDRH     r0,[r1,#0]
        0x08000798:    2200        ."      MOVS     r2,#0
        0x0800079a:    1f40        @.      SUBS     r0,r0,#5
        0x0800079c:    8008        ..      STRH     r0,[r1,#0]
        0x0800079e:    6820         h      LDR      r0,[r4,#0]
        0x080007a0:    8841        A.      LDRH     r1,[r0,#2]
        0x080007a2:    1f49        I.      SUBS     r1,r1,#5
        0x080007a4:    8041        A.      STRH     r1,[r0,#2]
        0x080007a6:    6838        8h      LDR      r0,[r7,#0]
        0x080007a8:    2100        .!      MOVS     r1,#0
        0x080007aa:    7101        .q      STRB     r1,[r0,#4]
        0x080007ac:    2105        .!      MOVS     r1,#5
        0x080007ae:    8041        A.      STRH     r1,[r0,#2]
        0x080007b0:    6829        )h      LDR      r1,[r5,#0]
        0x080007b2:    6868        hh      LDR      r0,[r5,#4]
        0x080007b4:    18c9        ..      ADDS     r1,r1,r3
        0x080007b6:    4150        PA      ADCS     r0,r0,r2
        0x080007b8:    6029        )`      STR      r1,[r5,#0]
        0x080007ba:    6068        h`      STR      r0,[r5,#4]
        0x080007bc:    7928        (y      LDRB     r0,[r5,#4]
        0x080007be:    06c0        ..      LSLS     r0,r0,#27
        0x080007c0:    0ec0        ..      LSRS     r0,r0,#27
        0x080007c2:    7128        (q      STRB     r0,[r5,#4]
        0x080007c4:    6830        0h      LDR      r0,[r6,#0]
        0x080007c6:    1d40        @.      ADDS     r0,r0,#5
        0x080007c8:    6030        0`      STR      r0,[r6,#0]
        0x080007ca:    78f0        .x      LDRB     r0,[r6,#3]
        0x080007cc:    28ef        .(      CMP      r0,#0xef
        0x080007ce:    d97d        }.      BLS      0x80008cc ; LLTimer_Isr + 376
        0x080007d0:    0700        ..      LSLS     r0,r0,#28
        0x080007d2:    0f00        ..      LSRS     r0,r0,#28
        0x080007d4:    70f0        .p      STRB     r0,[r6,#3]
        0x080007d6:    e283        ..      B        0x8000ce0 ; LLTimer_Isr + 1420
        0x080007d8:    48e4        .H      LDR      r0,[pc,#912] ; [0x8000b6c] = 0x20000045
        0x080007da:    7800        .x      LDRB     r0,[r0,#0]
        0x080007dc:    0940        @.      LSRS     r0,r0,#5
        0x080007de:    d028        (.      BEQ      0x8000832 ; LLTimer_Isr + 222
        0x080007e0:    4de3        .M      LDR      r5,[pc,#908] ; [0x8000b70] = 0x20000041
        0x080007e2:    48d9        .H      LDR      r0,[pc,#868] ; [0x8000b48] = 0x20000042
        0x080007e4:    7829        )x      LDRB     r1,[r5,#0]
        0x080007e6:    7001        .p      STRB     r1,[r0,#0]
        0x080007e8:    f000fbbc    ....    BL       LL_TmrBlk_Pt_PairRst ; 0x8000f64
        0x080007ec:    6838        8h      LDR      r0,[r7,#0]
        0x080007ee:    2101        .!      MOVS     r1,#1
        0x080007f0:    7101        .q      STRB     r1,[r0,#4]
        0x080007f2:    2105        .!      MOVS     r1,#5
        0x080007f4:    8041        A.      STRH     r1,[r0,#2]
        0x080007f6:    6820         h      LDR      r0,[r4,#0]
        0x080007f8:    22ff        ."      MOVS     r2,#0xff
        0x080007fa:    7102        .q      STRB     r2,[r0,#4]
        0x080007fc:    7802        .x      LDRB     r2,[r0,#0]
        0x080007fe:    702a        *p      STRB     r2,[r5,#0]
        0x08000800:    220c        ."      MOVS     r2,#0xc
        0x08000802:    4cda        .L      LDR      r4,[pc,#872] ; [0x8000b6c] = 0x20000045
        0x08000804:    7002        .p      STRB     r2,[r0,#0]
        0x08000806:    7822        "x      LDRB     r2,[r4,#0]
        0x08000808:    0613        ..      LSLS     r3,r2,#24
        0x0800080a:    d50e        ..      BPL      0x800082a ; LLTimer_Isr + 214
        0x0800080c:    0652        R.      LSLS     r2,r2,#25
        0x0800080e:    0e52        R.      LSRS     r2,r2,#25
        0x08000810:    2310        .#      MOVS     r3,#0x10
        0x08000812:    431a        .C      ORRS     r2,r2,r3
        0x08000814:    7022        "p      STRB     r2,[r4,#0]
        0x08000816:    683a        :h      LDR      r2,[r7,#0]
        0x08000818:    7151        Qq      STRB     r1,[r2,#5]
        0x0800081a:    7141        Aq      STRB     r1,[r0,#5]
        0x0800081c:    49d5        .I      LDR      r1,[pc,#852] ; [0x8000b74] = 0x20000284
        0x0800081e:    7989        .y      LDRB     r1,[r1,#6]
        0x08000820:    070a        ..      LSLS     r2,r1,#28
        0x08000822:    49d5        .I      LDR      r1,[pc,#852] ; [0x8000b78] = 0x2000007f
        0x08000824:    0f12        ..      LSRS     r2,r2,#28
        0x08000826:    5c89        .\      LDRB     r1,[r1,r2]
        0x08000828:    8041        A.      STRH     r1,[r0,#2]
        0x0800082a:    2005        .       MOVS     r0,#5
        0x0800082c:    f000ff82    ....    BL       RF_Tmr_Periodic_set_ISR ; 0x8001734
        0x08000830:    bdf8        ..      POP      {r3-r7,pc}
        0x08000832:    4bd2        .K      LDR      r3,[pc,#840] ; [0x8000b7c] = 0x30d40
        0x08000834:    6829        )h      LDR      r1,[r5,#0]
        0x08000836:    6868        hh      LDR      r0,[r5,#4]
        0x08000838:    18c9        ..      ADDS     r1,r1,r3
        0x0800083a:    2200        ."      MOVS     r2,#0
        0x0800083c:    4150        PA      ADCS     r0,r0,r2
        0x0800083e:    6029        )`      STR      r1,[r5,#0]
        0x08000840:    6068        h`      STR      r0,[r5,#4]
        0x08000842:    7928        (y      LDRB     r0,[r5,#4]
        0x08000844:    06c0        ..      LSLS     r0,r0,#27
        0x08000846:    0ec0        ..      LSRS     r0,r0,#27
        0x08000848:    7128        (q      STRB     r0,[r5,#4]
        0x0800084a:    2019        .       MOVS     r0,#0x19
        0x0800084c:    6831        1h      LDR      r1,[r6,#0]
        0x0800084e:    0180        ..      LSLS     r0,r0,#6
        0x08000850:    1808        ..      ADDS     r0,r1,r0
        0x08000852:    6030        0`      STR      r0,[r6,#0]
        0x08000854:    78f0        .x      LDRB     r0,[r6,#3]
        0x08000856:    28ef        .(      CMP      r0,#0xef
        0x08000858:    d97d        }.      BLS      0x8000956 ; LLTimer_Isr + 514
        0x0800085a:    0700        ..      LSLS     r0,r0,#28
        0x0800085c:    0f00        ..      LSRS     r0,r0,#28
        0x0800085e:    70f0        .p      STRB     r0,[r6,#3]
        0x08000860:    e247        G.      B        0x8000cf2 ; LLTimer_Isr + 1438
        0x08000862:    e249        I.      B        0x8000cf8 ; LLTimer_Isr + 1444
        0x08000864:    e096        ..      B        0x8000994 ; LLTimer_Isr + 576
        0x08000866:    e7ff        ..      B        0x8000868 ; LLTimer_Isr + 276
        0x08000868:    2002        .       MOVS     r0,#2
        0x0800086a:    f000ff63    ..c.    BL       RF_Tmr_Periodic_set_ISR ; 0x8001734
        0x0800086e:    f002f99f    ....    BL       rafael_reset_phy_fsm_Isr ; 0x8002bb0
        0x08000872:    f001f81f    ....    BL       RF_WTR_intOn ; 0x80018b4
        0x08000876:    6838        8h      LDR      r0,[r7,#0]
        0x08000878:    7945        Ey      LDRB     r5,[r0,#5]
        0x0800087a:    2d05        .-      CMP      r5,#5
        0x0800087c:    d326        &.      BCC      0x80008cc ; LLTimer_Isr + 376
        0x0800087e:    48c0        .H      LDR      r0,[pc,#768] ; [0x8000b80] = 0x2000007c
        0x08000880:    f000fd0c    ....    BL       RF_CRCInit ; 0x800129c
        0x08000884:    2205        ."      MOVS     r2,#5
        0x08000886:    49bf        .I      LDR      r1,[pc,#764] ; [0x8000b84] = 0x20000078
        0x08000888:    207a        z       MOVS     r0,#0x7a
        0x0800088a:    f001f9db    ....    BL       SPI_PDMA_SetTx ; 0x8001c44
        0x0800088e:    2100        .!      MOVS     r1,#0
        0x08000890:    209b        .       MOVS     r0,#0x9b
        0x08000892:    f001f8cb    ....    BL       SPI_1BYT_SetTx_Isr ; 0x8001a2c
        0x08000896:    2d05        .-      CMP      r5,#5
        0x08000898:    d118        ..      BNE      0x80008cc ; LLTimer_Isr + 376
        0x0800089a:    4eb6        .N      LDR      r6,[pc,#728] ; [0x8000b74] = 0x20000284
        0x0800089c:    2188        .!      MOVS     r1,#0x88
        0x0800089e:    7870        px      LDRB     r0,[r6,#1]
        0x080008a0:    4ab9        .J      LDR      r2,[pc,#740] ; [0x8000b88] = 0x200002d8
        0x080008a2:    4341        AC      MULS     r1,r0,r1
        0x080008a4:    1889        ..      ADDS     r1,r1,r2
        0x080008a6:    4ab9        .J      LDR      r2,[pc,#740] ; [0x8000b8c] = 0x2000008c
        0x080008a8:    6011        .`      STR      r1,[r2,#0]
        0x080008aa:    49b0        .I      LDR      r1,[pc,#704] ; [0x8000b6c] = 0x20000045
        0x080008ac:    7809        .x      LDRB     r1,[r1,#0]
        0x080008ae:    06c9        ..      LSLS     r1,r1,#27
        0x080008b0:    d417        ..      BMI      0x80008e2 ; LLTimer_Isr + 398
        0x080008b2:    2805        .(      CMP      r0,#5
        0x080008b4:    d203        ..      BCS      0x80008be ; LLTimer_Isr + 362
        0x080008b6:    f000fb37    ..7.    BL       LL_MsgBlk_LL_conn_Para_Rls ; 0x8000f28
        0x080008ba:    2005        .       MOVS     r0,#5
        0x080008bc:    7070        pp      STRB     r0,[r6,#1]
        0x080008be:    f000ffed    ....    BL       RF_WTR_intOff ; 0x800189c
        0x080008c2:    f000fb85    ....    BL       LL_TmrBlk_Rls_Pair ; 0x8000fd0
        0x080008c6:    48a0        .H      LDR      r0,[pc,#640] ; [0x8000b48] = 0x20000042
        0x080008c8:    7800        .x      LDRB     r0,[r0,#0]
        0x080008ca:    e000        ..      B        0x80008ce ; LLTimer_Isr + 378
        0x080008cc:    e0fc        ..      B        0x8000ac8 ; LLTimer_Isr + 884
        0x080008ce:    280c        .(      CMP      r0,#0xc
        0x080008d0:    d004        ..      BEQ      0x80008dc ; LLTimer_Isr + 392
        0x080008d2:    6838        8h      LDR      r0,[r7,#0]
        0x080008d4:    8840        @.      LDRH     r0,[r0,#2]
        0x080008d6:    f000ff2d    ..-.    BL       RF_Tmr_Periodic_set_ISR ; 0x8001734
        0x080008da:    bdf8        ..      POP      {r3-r7,pc}
        0x080008dc:    2019        .       MOVS     r0,#0x19
        0x080008de:    0180        ..      LSLS     r0,r0,#6
        0x080008e0:    e7f9        ..      B        0x80008d6 ; LLTimer_Isr + 386
        0x080008e2:    48ab        .H      LDR      r0,[pc,#684] ; [0x8000b90] = 0x20000043
        0x080008e4:    7800        .x      LDRB     r0,[r0,#0]
        0x080008e6:    2800        .(      CMP      r0,#0
        0x080008e8:    d001        ..      BEQ      0x80008ee ; LLTimer_Isr + 410
        0x080008ea:    2002        .       MOVS     r0,#2
        0x080008ec:    e070        p.      B        0x80009d0 ; LLTimer_Isr + 636
        0x080008ee:    49a9        .I      LDR      r1,[pc,#676] ; [0x8000b94] = 0x200002c4
        0x080008f0:    2011        .       MOVS     r0,#0x11
        0x080008f2:    5608        .V      LDRSB    r0,[r1,r0]
        0x080008f4:    f000fe14    ....    BL       RF_Set_TxPowerLevel_Isr ; 0x8001520
        0x080008f8:    f000fb90    ....    BL       LL_TxEnter_Isr ; 0x800101c
        0x080008fc:    7830        0x      LDRB     r0,[r6,#0]
        0x080008fe:    4da6        .M      LDR      r5,[pc,#664] ; [0x8000b98] = 0x20000086
        0x08000900:    5c28        (\      LDRB     r0,[r5,r0]
        0x08000902:    f002f989    ....    BL       setChannel_BLE ; 0x8002c18
        0x08000906:    7830        0x      LDRB     r0,[r6,#0]
        0x08000908:    49a4        .I      LDR      r1,[pc,#656] ; [0x8000b9c] = 0x200005f2
        0x0800090a:    5c28        (\      LDRB     r0,[r5,r0]
        0x0800090c:    5c08        .\      LDRB     r0,[r1,r0]
        0x0800090e:    f000fdcf    ....    BL       RF_PLL_VCO_Bank_set ; 0x80014b0
        0x08000912:    7831        1x      LDRB     r1,[r6,#0]
        0x08000914:    48a2        .H      LDR      r0,[pc,#648] ; [0x8000ba0] = 0x20000092
        0x08000916:    5c40        @\      LDRB     r0,[r0,r1]
        0x08000918:    7030        0p      STRB     r0,[r6,#0]
        0x0800091a:    79b0        .y      LDRB     r0,[r6,#6]
        0x0800091c:    49a1        .I      LDR      r1,[pc,#644] ; [0x8000ba4] = 0x20000046
        0x0800091e:    0705        ..      LSLS     r5,r0,#28
        0x08000920:    0f2d        -.      LSRS     r5,r5,#28
        0x08000922:    7008        .p      STRB     r0,[r1,#0]
        0x08000924:    2d01        .-      CMP      r5,#1
        0x08000926:    d029        ).      BEQ      0x800097c ; LLTimer_Isr + 552
        0x08000928:    7c70        p|      LDRB     r0,[r6,#0x11]
        0x0800092a:    7048        Hp      STRB     r0,[r1,#1]
        0x0800092c:    489d        .H      LDR      r0,[pc,#628] ; [0x8000ba4] = 0x20000046
        0x0800092e:    f000fd7f    ....    BL       RF_LE_HeaderStsLen_Tx ; 0x8001430
        0x08000932:    79f0        .y      LDRB     r0,[r6,#7]
        0x08000934:    2800        .(      CMP      r0,#0
        0x08000936:    d023        #.      BEQ      0x8000980 ; LLTimer_Isr + 556
        0x08000938:    489b        .H      LDR      r0,[pc,#620] ; [0x8000ba8] = 0x2000005e
        0x0800093a:    f000ff4f    ..O.    BL       RF_TxFIFO_ADVaddr_set ; 0x80017dc
        0x0800093e:    4e8d        .N      LDR      r6,[pc,#564] ; [0x8000b74] = 0x20000284
        0x08000940:    2d01        .-      CMP      r5,#1
        0x08000942:    d01f        ..      BEQ      0x8000984 ; LLTimer_Isr + 560
        0x08000944:    3612        .6      ADDS     r6,r6,#0x12
        0x08000946:    2000        .       MOVS     r0,#0
        0x08000948:    f000fe64    ..d.    BL       RF_SymbolRate_Patch_1M_2M ; 0x8001614
        0x0800094c:    2d02        .-      CMP      r5,#2
        0x0800094e:    d01b        ..      BEQ      0x8000988 ; LLTimer_Isr + 564
        0x08000950:    f000fdda    ....    BL       RF_RxFIFOrst ; 0x8001508
        0x08000954:    e000        ..      B        0x8000958 ; LLTimer_Isr + 516
        0x08000956:    e1cc        ..      B        0x8000cf2 ; LLTimer_Isr + 1438
        0x08000958:    f000ff28    ..(.    BL       RF_TxAutoAckOn ; 0x80017ac
        0x0800095c:    488c        .H      LDR      r0,[pc,#560] ; [0x8000b90] = 0x20000043
        0x0800095e:    210b        .!      MOVS     r1,#0xb
        0x08000960:    7001        .p      STRB     r1,[r0,#0]
        0x08000962:    4630        0F      MOV      r0,r6
        0x08000964:    f000ff2e    ....    BL       RF_TxFIFO_ADVData_set ; 0x80017c4
        0x08000968:    6820         h      LDR      r0,[r4,#0]
        0x0800096a:    8841        A.      LDRH     r1,[r0,#2]
        0x0800096c:    1e89        ..      SUBS     r1,r1,#2
        0x0800096e:    8041        A.      STRH     r1,[r0,#2]
        0x08000970:    6838        8h      LDR      r0,[r7,#0]
        0x08000972:    2103        .!      MOVS     r1,#3
        0x08000974:    7101        .q      STRB     r1,[r0,#4]
        0x08000976:    2102        .!      MOVS     r1,#2
        0x08000978:    8041        A.      STRH     r1,[r0,#2]
        0x0800097a:    e1b1        ..      B        0x8000ce0 ; LLTimer_Isr + 1420
        0x0800097c:    200c        .       MOVS     r0,#0xc
        0x0800097e:    e7d4        ..      B        0x800092a ; LLTimer_Isr + 470
        0x08000980:    488a        .H      LDR      r0,[pc,#552] ; [0x8000bac] = 0x20000066
        0x08000982:    e7da        ..      B        0x800093a ; LLTimer_Isr + 486
        0x08000984:    3609        .6      ADDS     r6,r6,#9
        0x08000986:    e7de        ..      B        0x8000946 ; LLTimer_Isr + 498
        0x08000988:    f000ff04    ....    BL       RF_TxAutoAckOff ; 0x8001794
        0x0800098c:    4880        .H      LDR      r0,[pc,#512] ; [0x8000b90] = 0x20000043
        0x0800098e:    210a        .!      MOVS     r1,#0xa
        0x08000990:    7001        .p      STRB     r1,[r0,#0]
        0x08000992:    e7e6        ..      B        0x8000962 ; LLTimer_Isr + 526
        0x08000994:    4e70        pN      LDR      r6,[pc,#448] ; [0x8000b58] = 0x2000004c
        0x08000996:    29ff        .)      CMP      r1,#0xff
        0x08000998:    d054        T.      BEQ      0x8000a44 ; LLTimer_Isr + 752
        0x0800099a:    2903        .)      CMP      r1,#3
        0x0800099c:    d112        ..      BNE      0x80009c4 ; LLTimer_Isr + 624
        0x0800099e:    2001        .       MOVS     r0,#1
        0x080009a0:    f000fec8    ....    BL       RF_Tmr_Periodic_set_ISR ; 0x8001734
        0x080009a4:    4882        .H      LDR      r0,[pc,#520] ; [0x8000bb0] = 0x20000064
        0x080009a6:    7801        .x      LDRB     r1,[r0,#0]
        0x080009a8:    4882        .H      LDR      r0,[pc,#520] ; [0x8000bb4] = 0x200005e4
        0x080009aa:    2966        f)      CMP      r1,#0x66
        0x080009ac:    d013        ..      BEQ      0x80009d6 ; LLTimer_Isr + 642
        0x080009ae:    7a80        .z      LDRB     r0,[r0,#0xa]
        0x080009b0:    0681        ..      LSLS     r1,r0,#26
        0x080009b2:    0e89        ..      LSRS     r1,r1,#26
        0x080009b4:    2077        w       MOVS     r0,#0x77
        0x080009b6:    f001f815    ....    BL       SPI_1BYT_SetTx ; 0x80019e4
        0x080009ba:    6830        0h      LDR      r0,[r6,#0]
        0x080009bc:    2101        .!      MOVS     r1,#1
        0x080009be:    8041        A.      STRH     r1,[r0,#2]
        0x080009c0:    2102        .!      MOVS     r1,#2
        0x080009c2:    7101        .q      STRB     r1,[r0,#4]
        0x080009c4:    6830        0h      LDR      r0,[r6,#0]
        0x080009c6:    7940        @y      LDRB     r0,[r0,#5]
        0x080009c8:    2805        .(      CMP      r0,#5
        0x080009ca:    d37d        }.      BCC      0x8000ac8 ; LLTimer_Isr + 884
        0x080009cc:    d00d        ..      BEQ      0x80009ea ; LLTimer_Isr + 662
        0x080009ce:    2009        .       MOVS     r0,#9
        0x080009d0:    f7fffe3c    ..<.    BL       ErrorEntry ; 0x800064c
        0x080009d4:    e184        ..      B        0x8000ce0 ; LLTimer_Isr + 1420
        0x080009d6:    7929        )y      LDRB     r1,[r5,#4]
        0x080009d8:    7a80        .z      LDRB     r0,[r0,#0xa]
        0x080009da:    2206        ."      MOVS     r2,#6
        0x080009dc:    4301        .C      ORRS     r1,r1,r0
        0x080009de:    7129        )q      STRB     r1,[r5,#4]
        0x080009e0:    495a        ZI      LDR      r1,[pc,#360] ; [0x8000b4c] = 0x20000070
        0x080009e2:    2073        s       MOVS     r0,#0x73
        0x080009e4:    f001f92e    ....    BL       SPI_PDMA_SetTx ; 0x8001c44
        0x080009e8:    e7e7        ..      B        0x80009ba ; LLTimer_Isr + 614
        0x080009ea:    4869        iH      LDR      r0,[pc,#420] ; [0x8000b90] = 0x20000043
        0x080009ec:    7800        .x      LDRB     r0,[r0,#0]
        0x080009ee:    280c        .(      CMP      r0,#0xc
        0x080009f0:    d013        ..      BEQ      0x8000a1a ; LLTimer_Isr + 710
        0x080009f2:    280e        .(      CMP      r0,#0xe
        0x080009f4:    d068        h.      BEQ      0x8000ac8 ; LLTimer_Isr + 884
        0x080009f6:    280f        .(      CMP      r0,#0xf
        0x080009f8:    d008        ..      BEQ      0x8000a0c ; LLTimer_Isr + 696
        0x080009fa:    6821        !h      LDR      r1,[r4,#0]
        0x080009fc:    8848        H.      LDRH     r0,[r1,#2]
        0x080009fe:    2801        .(      CMP      r0,#1
        0x08000a00:    d01b        ..      BEQ      0x8000a3a ; LLTimer_Isr + 742
        0x08000a02:    1e40        @.      SUBS     r0,r0,#1
        0x08000a04:    8048        H.      STRH     r0,[r1,#2]
        0x08000a06:    f000f991    ....    BL       LLTimer_TmrRefUpd_Isr ; 0x8000d2c
        0x08000a0a:    e169        i.      B        0x8000ce0 ; LLTimer_Isr + 1420
        0x08000a0c:    6820         h      LDR      r0,[r4,#0]
        0x08000a0e:    8840        @.      LDRH     r0,[r0,#2]
        0x08000a10:    f000fe90    ....    BL       RF_Tmr_Periodic_set_ISR ; 0x8001734
        0x08000a14:    f000fabe    ....    BL       LL_TmrBlk_Rls ; 0x8000f94
        0x08000a18:    e162        b.      B        0x8000ce0 ; LLTimer_Isr + 1420
        0x08000a1a:    6820         h      LDR      r0,[r4,#0]
        0x08000a1c:    8841        A.      LDRH     r1,[r0,#2]
        0x08000a1e:    2901        .)      CMP      r1,#1
        0x08000a20:    d002        ..      BEQ      0x8000a28 ; LLTimer_Isr + 724
        0x08000a22:    1e49        I.      SUBS     r1,r1,#1
        0x08000a24:    8041        A.      STRH     r1,[r0,#2]
        0x08000a26:    e7ee        ..      B        0x8000a06 ; LLTimer_Isr + 690
        0x08000a28:    f000feb4    ....    BL       RF_TxAutoAckOff ; 0x8001794
        0x08000a2c:    f002f8c0    ....    BL       rafael_reset_phy_fsm_Isr ; 0x8002bb0
        0x08000a30:    f000fab0    ....    BL       LL_TmrBlk_Rls ; 0x8000f94
        0x08000a34:    f000fd68    ..h.    BL       RF_RxFIFOrst ; 0x8001508
        0x08000a38:    e152        R.      B        0x8000ce0 ; LLTimer_Isr + 1420
        0x08000a3a:    f000fe7b    ..{.    BL       RF_Tmr_Periodic_set_ISR ; 0x8001734
        0x08000a3e:    f000faa9    ....    BL       LL_TmrBlk_Rls ; 0x8000f94
        0x08000a42:    e14d        M.      B        0x8000ce0 ; LLTimer_Isr + 1420
        0x08000a44:    7940        @y      LDRB     r0,[r0,#5]
        0x08000a46:    2805        .(      CMP      r0,#5
        0x08000a48:    d303        ..      BCC      0x8000a52 ; LLTimer_Isr + 766
        0x08000a4a:    d00a        ..      BEQ      0x8000a62 ; LLTimer_Isr + 782
        0x08000a4c:    200c        .       MOVS     r0,#0xc
        0x08000a4e:    f7fffdfd    ....    BL       ErrorEntry ; 0x800064c
        0x08000a52:    484f        OH      LDR      r0,[pc,#316] ; [0x8000b90] = 0x20000043
        0x08000a54:    2100        .!      MOVS     r1,#0
        0x08000a56:    7001        .p      STRB     r1,[r0,#0]
        0x08000a58:    f000ff16    ....    BL       RF_WTR_EnChk ; 0x8001888
        0x08000a5c:    2800        .(      CMP      r0,#0
        0x08000a5e:    d070        p.      BEQ      0x8000b42 ; LLTimer_Isr + 1006
        0x08000a60:    e0ed        ..      B        0x8000c3e ; LLTimer_Isr + 1258
        0x08000a62:    484b        KH      LDR      r0,[pc,#300] ; [0x8000b90] = 0x20000043
        0x08000a64:    7800        .x      LDRB     r0,[r0,#0]
        0x08000a66:    280d        .(      CMP      r0,#0xd
        0x08000a68:    d002        ..      BEQ      0x8000a70 ; LLTimer_Isr + 796
        0x08000a6a:    280e        .(      CMP      r0,#0xe
        0x08000a6c:    d105        ..      BNE      0x8000a7a ; LLTimer_Isr + 806
        0x08000a6e:    e001        ..      B        0x8000a74 ; LLTimer_Isr + 800
        0x08000a70:    bf00        ..      NOP      
        0x08000a72:    e002        ..      B        0x8000a7a ; LLTimer_Isr + 806
        0x08000a74:    200b        .       MOVS     r0,#0xb
        0x08000a76:    f7fffde9    ....    BL       ErrorEntry ; 0x800064c
        0x08000a7a:    483c        <H      LDR      r0,[pc,#240] ; [0x8000b6c] = 0x20000045
        0x08000a7c:    7800        .x      LDRB     r0,[r0,#0]
        0x08000a7e:    06c0        ..      LSLS     r0,r0,#27
        0x08000a80:    d560        `.      BPL      0x8000b44 ; LLTimer_Isr + 1008
        0x08000a82:    483c        <H      LDR      r0,[pc,#240] ; [0x8000b74] = 0x20000284
        0x08000a84:    7980        .y      LDRB     r0,[r0,#6]
        0x08000a86:    0701        ..      LSLS     r1,r0,#28
        0x08000a88:    483b        ;H      LDR      r0,[pc,#236] ; [0x8000b78] = 0x2000007f
        0x08000a8a:    0f09        ..      LSRS     r1,r1,#28
        0x08000a8c:    5c40        @\      LDRB     r0,[r0,r1]
        0x08000a8e:    1c80        ..      ADDS     r0,r0,#2
        0x08000a90:    b2c3        ..      UXTB     r3,r0
        0x08000a92:    4831        1H      LDR      r0,[pc,#196] ; [0x8000b58] = 0x2000004c
        0x08000a94:    6800        .h      LDR      r0,[r0,#0]
        0x08000a96:    7802        .x      LDRB     r2,[r0,#0]
        0x08000a98:    4610        .F      MOV      r0,r2
        0x08000a9a:    2a0c        .*      CMP      r2,#0xc
        0x08000a9c:    d226        &.      BCS      0x8000aec ; LLTimer_Isr + 920
        0x08000a9e:    4935        5I      LDR      r1,[pc,#212] ; [0x8000b74] = 0x20000284
        0x08000aa0:    7809        .x      LDRB     r1,[r1,#0]
        0x08000aa2:    468c        .F      MOV      r12,r1
        0x08000aa4:    4933        3I      LDR      r1,[pc,#204] ; [0x8000b74] = 0x20000284
        0x08000aa6:    884e        N.      LDRH     r6,[r1,#2]
        0x08000aa8:    2506        .%      MOVS     r5,#6
        0x08000aaa:    4601        .F      MOV      r1,r0
        0x08000aac:    4369        iC      MULS     r1,r5,r1
        0x08000aae:    4d42        BM      LDR      r5,[pc,#264] ; [0x8000bb8] = 0x2000059c
        0x08000ab0:    1949        I.      ADDS     r1,r1,r5
        0x08000ab2:    6021        !`      STR      r1,[r4,#0]
        0x08000ab4:    790d        .y      LDRB     r5,[r1,#4]
        0x08000ab6:    2d02        .-      CMP      r5,#2
        0x08000ab8:    d20e        ..      BCS      0x8000ad8 ; LLTimer_Isr + 900
        0x08000aba:    884d        M.      LDRH     r5,[r1,#2]
        0x08000abc:    1aed        ..      SUBS     r5,r5,r3
        0x08000abe:    d40b        ..      BMI      0x8000ad8 ; LLTimer_Isr + 900
        0x08000ac0:    4667        gF      MOV      r7,r12
        0x08000ac2:    b2ad        ..      UXTH     r5,r5
        0x08000ac4:    2f00        ./      CMP      r7,#0
        0x08000ac6:    e000        ..      B        0x8000aca ; LLTimer_Isr + 886
        0x08000ac8:    e10a        ..      B        0x8000ce0 ; LLTimer_Isr + 1420
        0x08000aca:    d001        ..      BEQ      0x8000ad0 ; LLTimer_Isr + 892
        0x08000acc:    804d        M.      STRH     r5,[r1,#2]
        0x08000ace:    e00d        ..      B        0x8000aec ; LLTimer_Isr + 920
        0x08000ad0:    4f28        (O      LDR      r7,[pc,#160] ; [0x8000b74] = 0x20000284
        0x08000ad2:    88bf        ..      LDRH     r7,[r7,#4]
        0x08000ad4:    42be        .B      CMP      r6,r7
        0x08000ad6:    d3f9        ..      BCC      0x8000acc ; LLTimer_Isr + 888
        0x08000ad8:    4d1f        .M      LDR      r5,[pc,#124] ; [0x8000b58] = 0x2000004c
        0x08000ada:    7808        .x      LDRB     r0,[r1,#0]
        0x08000adc:    4f25        %O      LDR      r7,[pc,#148] ; [0x8000b74] = 0x20000284
        0x08000ade:    6029        )`      STR      r1,[r5,#0]
        0x08000ae0:    88bd        ..      LDRH     r5,[r7,#4]
        0x08000ae2:    8849        I.      LDRH     r1,[r1,#2]
        0x08000ae4:    1869        i.      ADDS     r1,r5,r1
        0x08000ae6:    80b9        ..      STRH     r1,[r7,#4]
        0x08000ae8:    280c        .(      CMP      r0,#0xc
        0x08000aea:    d3dd        ..      BCC      0x8000aa8 ; LLTimer_Isr + 852
        0x08000aec:    491a        .I      LDR      r1,[pc,#104] ; [0x8000b58] = 0x2000004c
        0x08000aee:    4e20         N      LDR      r6,[pc,#128] ; [0x8000b70] = 0x20000041
        0x08000af0:    6809        .h      LDR      r1,[r1,#0]
        0x08000af2:    7835        5x      LDRB     r5,[r6,#0]
        0x08000af4:    700d        .p      STRB     r5,[r1,#0]
        0x08000af6:    2701        .'      MOVS     r7,#1
        0x08000af8:    710f        .q      STRB     r7,[r1,#4]
        0x08000afa:    7831        1x      LDRB     r1,[r6,#0]
        0x08000afc:    2506        .%      MOVS     r5,#6
        0x08000afe:    4369        iC      MULS     r1,r5,r1
        0x08000b00:    4d2d        -M      LDR      r5,[pc,#180] ; [0x8000bb8] = 0x2000059c
        0x08000b02:    1e9b        ..      SUBS     r3,r3,#2
        0x08000b04:    194d        M.      ADDS     r5,r1,r5
        0x08000b06:    6025        %`      STR      r5,[r4,#0]
        0x08000b08:    7829        )x      LDRB     r1,[r5,#0]
        0x08000b0a:    7031        1p      STRB     r1,[r6,#0]
        0x08000b0c:    b2d9        ..      UXTB     r1,r3
        0x08000b0e:    7028        (p      STRB     r0,[r5,#0]
        0x08000b10:    8069        i.      STRH     r1,[r5,#2]
        0x08000b12:    2305        .#      MOVS     r3,#5
        0x08000b14:    716b        kq      STRB     r3,[r5,#5]
        0x08000b16:    23ff        .#      MOVS     r3,#0xff
        0x08000b18:    712b        +q      STRB     r3,[r5,#4]
        0x08000b1a:    280c        .(      CMP      r0,#0xc
        0x08000b1c:    d15a        Z.      BNE      0x8000bd4 ; LLTimer_Isr + 1152
        0x08000b1e:    2a0c        .*      CMP      r2,#0xc
        0x08000b20:    d158        X.      BNE      0x8000bd4 ; LLTimer_Isr + 1152
        0x08000b22:    4d14        .M      LDR      r5,[pc,#80] ; [0x8000b74] = 0x20000284
        0x08000b24:    886b        k.      LDRH     r3,[r5,#2]
        0x08000b26:    2b1e        .+      CMP      r3,#0x1e
        0x08000b28:    d048        H.      BEQ      0x8000bbc ; LLTimer_Isr + 1128
        0x08000b2a:    782e        .x      LDRB     r6,[r5,#0]
        0x08000b2c:    2e00        ..      CMP      r6,#0
        0x08000b2e:    d04a        J.      BEQ      0x8000bc6 ; LLTimer_Isr + 1138
        0x08000b30:    25ff        .%      MOVS     r5,#0xff
        0x08000b32:    3541        A5      ADDS     r5,r5,#0x41
        0x08000b34:    42ab        .B      CMP      r3,r5
        0x08000b36:    d34f        O.      BCC      0x8000bd8 ; LLTimer_Isr + 1156
        0x08000b38:    2550        P%      MOVS     r5,#0x50
        0x08000b3a:    1a6b        k.      SUBS     r3,r5,r1
        0x08000b3c:    466d        mF      MOV      r5,sp
        0x08000b3e:    802b        +.      STRH     r3,[r5,#0]
        0x08000b40:    e04a        J.      B        0x8000bd8 ; LLTimer_Isr + 1156
        0x08000b42:    e07a        z.      B        0x8000c3a ; LLTimer_Isr + 1254
        0x08000b44:    e068        h.      B        0x8000c18 ; LLTimer_Isr + 1220
    $d
        0x08000b46:    0000        ..      DCW    0
        0x08000b48:    20000042    B..     DCD    536870978
        0x08000b4c:    20000070    p..     DCD    536871024
        0x08000b50:    200000a0    ...     DCD    536871072
        0x08000b54:    20000050    P..     DCD    536870992
        0x08000b58:    2000004c    L..     DCD    536870988
        0x08000b5c:    2000009e    ...     DCD    536871070
        0x08000b60:    20000044    D..     DCD    536870980
        0x08000b64:    20000090    ...     DCD    536871056
        0x08000b68:    00000271    q...    DCD    625
        0x08000b6c:    20000045    E..     DCD    536870981
        0x08000b70:    20000041    A..     DCD    536870977
        0x08000b74:    20000284    ...     DCD    536871556
        0x08000b78:    2000007f    ...     DCD    536871039
        0x08000b7c:    00030d40    @...    DCD    200000
        0x08000b80:    2000007c    |..     DCD    536871036
        0x08000b84:    20000078    x..     DCD    536871032
        0x08000b88:    200002d8    ...     DCD    536871640
        0x08000b8c:    2000008c    ...     DCD    536871052
        0x08000b90:    20000043    C..     DCD    536870979
        0x08000b94:    200002c4    ...     DCD    536871620
        0x08000b98:    20000086    ...     DCD    536871046
        0x08000b9c:    200005f2    ...     DCD    536872434
        0x08000ba0:    20000092    ...     DCD    536871058
        0x08000ba4:    20000046    F..     DCD    536870982
        0x08000ba8:    2000005e    ^..     DCD    536871006
        0x08000bac:    20000066    f..     DCD    536871014
        0x08000bb0:    20000064    d..     DCD    536871012
        0x08000bb4:    200005e4    ...     DCD    536872420
        0x08000bb8:    2000059c    ...     DCD    536872348
    $t
        0x08000bbc:    250a        .%      MOVS     r5,#0xa
        0x08000bbe:    1a6b        k.      SUBS     r3,r5,r1
        0x08000bc0:    466d        mF      MOV      r5,sp
        0x08000bc2:    802b        +.      STRH     r3,[r5,#0]
        0x08000bc4:    e008        ..      B        0x8000bd8 ; LLTimer_Isr + 1156
        0x08000bc6:    88ad        ..      LDRH     r5,[r5,#4]
        0x08000bc8:    42ab        .B      CMP      r3,r5
        0x08000bca:    d903        ..      BLS      0x8000bd4 ; LLTimer_Isr + 1152
        0x08000bcc:    1b5b        [.      SUBS     r3,r3,r5
        0x08000bce:    466d        mF      MOV      r5,sp
        0x08000bd0:    802b        +.      STRH     r3,[r5,#0]
        0x08000bd2:    e001        ..      B        0x8000bd8 ; LLTimer_Isr + 1156
        0x08000bd4:    466d        mF      MOV      r5,sp
        0x08000bd6:    802f        /.      STRH     r7,[r5,#0]
        0x08000bd8:    4f4c        LO      LDR      r7,[pc,#304] ; [0x8000d0c] = 0x2000004c
        0x08000bda:    466b        kF      MOV      r3,sp
        0x08000bdc:    683d        =h      LDR      r5,[r7,#0]
        0x08000bde:    881b        ..      LDRH     r3,[r3,#0]
        0x08000be0:    4e4b        KN      LDR      r6,[pc,#300] ; [0x8000d10] = 0x20000284
        0x08000be2:    806b        k.      STRH     r3,[r5,#2]
        0x08000be4:    88b5        ..      LDRH     r5,[r6,#4]
        0x08000be6:    1859        Y.      ADDS     r1,r3,r1
        0x08000be8:    1869        i.      ADDS     r1,r5,r1
        0x08000bea:    80b1        ..      STRH     r1,[r6,#4]
        0x08000bec:    7831        1x      LDRB     r1,[r6,#0]
        0x08000bee:    2900        .)      CMP      r1,#0
        0x08000bf0:    d107        ..      BNE      0x8000c02 ; LLTimer_Isr + 1198
        0x08000bf2:    8871        q.      LDRH     r1,[r6,#2]
        0x08000bf4:    291e        .)      CMP      r1,#0x1e
        0x08000bf6:    d001        ..      BEQ      0x8000bfc ; LLTimer_Isr + 1192
        0x08000bf8:    2100        .!      MOVS     r1,#0
        0x08000bfa:    80b1        ..      STRH     r1,[r6,#4]
        0x08000bfc:    4945        EI      LDR      r1,[pc,#276] ; [0x8000d14] = 0x20000092
        0x08000bfe:    7809        .x      LDRB     r1,[r1,#0]
        0x08000c00:    7031        1p      STRB     r1,[r6,#0]
        0x08000c02:    2a0c        .*      CMP      r2,#0xc
        0x08000c04:    d005        ..      BEQ      0x8000c12 ; LLTimer_Isr + 1214
        0x08000c06:    4282        .B      CMP      r2,r0
        0x08000c08:    d003        ..      BEQ      0x8000c12 ; LLTimer_Isr + 1214
        0x08000c0a:    4843        CH      LDR      r0,[pc,#268] ; [0x8000d18] = 0x20000042
        0x08000c0c:    7002        .p      STRB     r2,[r0,#0]
        0x08000c0e:    f000f9a9    ....    BL       LL_TmrBlk_Pt_PairRst ; 0x8000f64
        0x08000c12:    6838        8h      LDR      r0,[r7,#0]
        0x08000c14:    8840        @.      LDRH     r0,[r0,#2]
        0x08000c16:    e00d        ..      B        0x8000c34 ; LLTimer_Isr + 1248
        0x08000c18:    f000f9bc    ....    BL       LL_TmrBlk_Rls ; 0x8000f94
        0x08000c1c:    483e        >H      LDR      r0,[pc,#248] ; [0x8000d18] = 0x20000042
        0x08000c1e:    7800        .x      LDRB     r0,[r0,#0]
        0x08000c20:    280c        .(      CMP      r0,#0xc
        0x08000c22:    d005        ..      BEQ      0x8000c30 ; LLTimer_Isr + 1244
        0x08000c24:    4839        9H      LDR      r0,[pc,#228] ; [0x8000d0c] = 0x2000004c
        0x08000c26:    6800        .h      LDR      r0,[r0,#0]
        0x08000c28:    8840        @.      LDRH     r0,[r0,#2]
        0x08000c2a:    f000fd83    ....    BL       RF_Tmr_Periodic_set_ISR ; 0x8001734
        0x08000c2e:    e710        ..      B        0x8000a52 ; LLTimer_Isr + 766
        0x08000c30:    2019        .       MOVS     r0,#0x19
        0x08000c32:    0180        ..      LSLS     r0,r0,#6
        0x08000c34:    f000fd7e    ..~.    BL       RF_Tmr_Periodic_set_ISR ; 0x8001734
        0x08000c38:    e70b        ..      B        0x8000a52 ; LLTimer_Isr + 766
        0x08000c3a:    f001ffb9    ....    BL       rafael_reset_phy_fsm_Isr ; 0x8002bb0
        0x08000c3e:    4d33        3M      LDR      r5,[pc,#204] ; [0x8000d0c] = 0x2000004c
        0x08000c40:    6828        (h      LDR      r0,[r5,#0]
        0x08000c42:    8840        @.      LDRH     r0,[r0,#2]
        0x08000c44:    2802        .(      CMP      r0,#2
        0x08000c46:    d200        ..      BCS      0x8000c4a ; LLTimer_Isr + 1270
        0x08000c48:    e647        G.      B        0x80008da ; LLTimer_Isr + 390
        0x08000c4a:    4934        4I      LDR      r1,[pc,#208] ; [0x8000d1c] = 0x20000045
        0x08000c4c:    7808        .x      LDRB     r0,[r1,#0]
        0x08000c4e:    0942        B.      LSRS     r2,r0,#5
        0x08000c50:    d046        F.      BEQ      0x8000ce0 ; LLTimer_Isr + 1420
        0x08000c52:    0602        ..      LSLS     r2,r0,#24
        0x08000c54:    d544        D.      BPL      0x8000ce0 ; LLTimer_Isr + 1420
        0x08000c56:    0640        @.      LSLS     r0,r0,#25
        0x08000c58:    0e40        @.      LSRS     r0,r0,#25
        0x08000c5a:    2210        ."      MOVS     r2,#0x10
        0x08000c5c:    4310        .C      ORRS     r0,r0,r2
        0x08000c5e:    7008        .p      STRB     r0,[r1,#0]
        0x08000c60:    482b        +H      LDR      r0,[pc,#172] ; [0x8000d10] = 0x20000284
        0x08000c62:    7980        .y      LDRB     r0,[r0,#6]
        0x08000c64:    0701        ..      LSLS     r1,r0,#28
        0x08000c66:    482e        .H      LDR      r0,[pc,#184] ; [0x8000d20] = 0x2000007f
        0x08000c68:    0f09        ..      LSRS     r1,r1,#28
        0x08000c6a:    5c42        B\      LDRB     r2,[r0,r1]
        0x08000c6c:    4668        hF      MOV      r0,sp
        0x08000c6e:    1c92        ..      ADDS     r2,r2,#2
        0x08000c70:    8002        ..      STRH     r2,[r0,#0]
        0x08000c72:    6820         h      LDR      r0,[r4,#0]
        0x08000c74:    7801        .x      LDRB     r1,[r0,#0]
        0x08000c76:    290c        .)      CMP      r1,#0xc
        0x08000c78:    d213        ..      BCS      0x8000ca2 ; LLTimer_Isr + 1358
        0x08000c7a:    4e2a        *N      LDR      r6,[pc,#168] ; [0x8000d24] = 0x2000059c
        0x08000c7c:    2006        .       MOVS     r0,#6
        0x08000c7e:    4348        HC      MULS     r0,r1,r0
        0x08000c80:    1980        ..      ADDS     r0,r0,r6
        0x08000c82:    6020         `      STR      r0,[r4,#0]
        0x08000c84:    7903        .y      LDRB     r3,[r0,#4]
        0x08000c86:    2b02        .+      CMP      r3,#2
        0x08000c88:    d207        ..      BCS      0x8000c9a ; LLTimer_Isr + 1350
        0x08000c8a:    8843        C.      LDRH     r3,[r0,#2]
        0x08000c8c:    1a9b        ..      SUBS     r3,r3,r2
        0x08000c8e:    d404        ..      BMI      0x8000c9a ; LLTimer_Isr + 1350
        0x08000c90:    8843        C.      LDRH     r3,[r0,#2]
        0x08000c92:    1a9b        ..      SUBS     r3,r3,r2
        0x08000c94:    1c5b        [.      ADDS     r3,r3,#1
        0x08000c96:    8043        C.      STRH     r3,[r0,#2]
        0x08000c98:    e003        ..      B        0x8000ca2 ; LLTimer_Isr + 1358
        0x08000c9a:    7801        .x      LDRB     r1,[r0,#0]
        0x08000c9c:    6028        (`      STR      r0,[r5,#0]
        0x08000c9e:    290c        .)      CMP      r1,#0xc
        0x08000ca0:    d3ec        ..      BCC      0x8000c7c ; LLTimer_Isr + 1320
        0x08000ca2:    4b21        !K      LDR      r3,[pc,#132] ; [0x8000d28] = 0x20000041
        0x08000ca4:    682e        .h      LDR      r6,[r5,#0]
        0x08000ca6:    7818        .x      LDRB     r0,[r3,#0]
        0x08000ca8:    7030        0p      STRB     r0,[r6,#0]
        0x08000caa:    7818        .x      LDRB     r0,[r3,#0]
        0x08000cac:    2606        .&      MOVS     r6,#6
        0x08000cae:    4370        pC      MULS     r0,r6,r0
        0x08000cb0:    4f1c        .O      LDR      r7,[pc,#112] ; [0x8000d24] = 0x2000059c
        0x08000cb2:    2601        .&      MOVS     r6,#1
        0x08000cb4:    19c0        ..      ADDS     r0,r0,r7
        0x08000cb6:    6028        (`      STR      r0,[r5,#0]
        0x08000cb8:    7106        .q      STRB     r6,[r0,#4]
        0x08000cba:    8046        F.      STRH     r6,[r0,#2]
        0x08000cbc:    7800        .x      LDRB     r0,[r0,#0]
        0x08000cbe:    2606        .&      MOVS     r6,#6
        0x08000cc0:    4370        pC      MULS     r0,r6,r0
        0x08000cc2:    19c0        ..      ADDS     r0,r0,r7
        0x08000cc4:    6020         `      STR      r0,[r4,#0]
        0x08000cc6:    7804        .x      LDRB     r4,[r0,#0]
        0x08000cc8:    701c        .p      STRB     r4,[r3,#0]
        0x08000cca:    7001        .p      STRB     r1,[r0,#0]
        0x08000ccc:    1e92        ..      SUBS     r2,r2,#2
        0x08000cce:    8042        B.      STRH     r2,[r0,#2]
        0x08000cd0:    21ff        .!      MOVS     r1,#0xff
        0x08000cd2:    7101        .q      STRB     r1,[r0,#4]
        0x08000cd4:    682a        *h      LDR      r2,[r5,#0]
        0x08000cd6:    2105        .!      MOVS     r1,#5
        0x08000cd8:    7151        Qq      STRB     r1,[r2,#5]
        0x08000cda:    7141        Aq      STRB     r1,[r0,#5]
        0x08000cdc:    f000f942    ..B.    BL       LL_TmrBlk_Pt_PairRst ; 0x8000f64
        0x08000ce0:    480d        .H      LDR      r0,[pc,#52] ; [0x8000d18] = 0x20000042
        0x08000ce2:    7800        .x      LDRB     r0,[r0,#0]
        0x08000ce4:    280c        .(      CMP      r0,#0xc
        0x08000ce6:    d0af        ..      BEQ      0x8000c48 ; LLTimer_Isr + 1268
        0x08000ce8:    4808        .H      LDR      r0,[pc,#32] ; [0x8000d0c] = 0x2000004c
        0x08000cea:    6800        .h      LDR      r0,[r0,#0]
        0x08000cec:    8840        @.      LDRH     r0,[r0,#2]
        0x08000cee:    2850        P(      CMP      r0,#0x50
        0x08000cf0:    d9aa        ..      BLS      0x8000c48 ; LLTimer_Isr + 1268
        0x08000cf2:    f000fbe9    ....    BL       RF_PowerSaving_En_Isr ; 0x80014c8
        0x08000cf6:    bdf8        ..      POP      {r3-r7,pc}
        0x08000cf8:    4291        .B      CMP      r1,r2
        0x08000cfa:    d905        ..      BLS      0x8000d08 ; LLTimer_Isr + 1460
        0x08000cfc:    1a89        ..      SUBS     r1,r1,r2
        0x08000cfe:    8041        A.      STRH     r1,[r0,#2]
        0x08000d00:    7940        @y      LDRB     r0,[r0,#5]
        0x08000d02:    2805        .(      CMP      r0,#5
        0x08000d04:    d300        ..      BCC      0x8000d08 ; LLTimer_Isr + 1460
        0x08000d06:    bf00        ..      NOP      
        0x08000d08:    bf00        ..      NOP      
        0x08000d0a:    bdf8        ..      POP      {r3-r7,pc}
    $d
        0x08000d0c:    2000004c    L..     DCD    536870988
        0x08000d10:    20000284    ...     DCD    536871556
        0x08000d14:    20000092    ...     DCD    536871058
        0x08000d18:    20000042    B..     DCD    536870978
        0x08000d1c:    20000045    E..     DCD    536870981
        0x08000d20:    2000007f    ...     DCD    536871039
        0x08000d24:    2000059c    ...     DCD    536872348
        0x08000d28:    20000041    A..     DCD    536870977
    $t
    i.LLTimer_TmrRefUpd_Isr
    LLTimer_TmrRefUpd_Isr
        0x08000d2c:    b410        ..      PUSH     {r4}
        0x08000d2e:    480d        .H      LDR      r0,[pc,#52] ; [0x8000d64] = 0x20000040
        0x08000d30:    247d        }$      MOVS     r4,#0x7d
        0x08000d32:    6b02        .k      LDR      r2,[r0,#0x30]
        0x08000d34:    6b41        Ak      LDR      r1,[r0,#0x34]
        0x08000d36:    1912        ..      ADDS     r2,r2,r4
        0x08000d38:    2300        .#      MOVS     r3,#0
        0x08000d3a:    4159        YA      ADCS     r1,r1,r3
        0x08000d3c:    6302        .c      STR      r2,[r0,#0x30]
        0x08000d3e:    6341        Ac      STR      r1,[r0,#0x34]
        0x08000d40:    4809        .H      LDR      r0,[pc,#36] ; [0x8000d68] = 0x20000070
        0x08000d42:    7901        .y      LDRB     r1,[r0,#4]
        0x08000d44:    06c9        ..      LSLS     r1,r1,#27
        0x08000d46:    0ec9        ..      LSRS     r1,r1,#27
        0x08000d48:    7101        .q      STRB     r1,[r0,#4]
        0x08000d4a:    4908        .I      LDR      r1,[pc,#32] ; [0x8000d6c] = 0x200000a0
        0x08000d4c:    6808        .h      LDR      r0,[r1,#0]
        0x08000d4e:    1c40        @.      ADDS     r0,r0,#1
        0x08000d50:    6008        .`      STR      r0,[r1,#0]
        0x08000d52:    78c8        .x      LDRB     r0,[r1,#3]
        0x08000d54:    28ef        .(      CMP      r0,#0xef
        0x08000d56:    d902        ..      BLS      0x8000d5e ; LLTimer_TmrRefUpd_Isr + 50
        0x08000d58:    0700        ..      LSLS     r0,r0,#28
        0x08000d5a:    0f00        ..      LSRS     r0,r0,#28
        0x08000d5c:    70c8        .p      STRB     r0,[r1,#3]
        0x08000d5e:    bc10        ..      POP      {r4}
        0x08000d60:    4770        pG      BX       lr
    $d
        0x08000d62:    0000        ..      DCW    0
        0x08000d64:    20000040    @..     DCD    536870976
        0x08000d68:    20000070    p..     DCD    536871024
        0x08000d6c:    200000a0    ...     DCD    536871072
    $t
    i.LLWTR_Isr
    LLWTR_Isr
        0x08000d70:    4839        9H      LDR      r0,[pc,#228] ; [0x8000e58] = 0x2000004c
        0x08000d72:    6800        .h      LDR      r0,[r0,#0]
        0x08000d74:    7940        @y      LDRB     r0,[r0,#5]
        0x08000d76:    2805        .(      CMP      r0,#5
        0x08000d78:    d36d        m.      BCC      0x8000e56 ; LLWTR_Isr + 230
        0x08000d7a:    d16c        l.      BNE      0x8000e56 ; LLWTR_Isr + 230
        0x08000d7c:    b570        p.      PUSH     {r4-r6,lr}
        0x08000d7e:    4d37        7M      LDR      r5,[pc,#220] ; [0x8000e5c] = 0x20000043
        0x08000d80:    240f        .$      MOVS     r4,#0xf
        0x08000d82:    7828        (x      LDRB     r0,[r5,#0]
        0x08000d84:    b090        ..      SUB      sp,sp,#0x40
        0x08000d86:    280a        .(      CMP      r0,#0xa
        0x08000d88:    d007        ..      BEQ      0x8000d9a ; LLWTR_Isr + 42
        0x08000d8a:    280b        .(      CMP      r0,#0xb
        0x08000d8c:    d008        ..      BEQ      0x8000da0 ; LLWTR_Isr + 48
        0x08000d8e:    280c        .(      CMP      r0,#0xc
        0x08000d90:    d008        ..      BEQ      0x8000da4 ; LLWTR_Isr + 52
        0x08000d92:    280d        .(      CMP      r0,#0xd
        0x08000d94:    d102        ..      BNE      0x8000d9c ; LLWTR_Isr + 44
        0x08000d96:    f001ff0b    ....    BL       rafael_reset_phy_fsm_Isr ; 0x8002bb0
        0x08000d9a:    702c        ,p      STRB     r4,[r5,#0]
        0x08000d9c:    b010        ..      ADD      sp,sp,#0x40
        0x08000d9e:    bd70        p.      POP      {r4-r6,pc}
        0x08000da0:    200c        .       MOVS     r0,#0xc
        0x08000da2:    e053        S.      B        0x8000e4c ; LLWTR_Isr + 220
        0x08000da4:    702c        ,p      STRB     r4,[r5,#0]
        0x08000da6:    f000fa80    ....    BL       RF_CRCchk ; 0x80012aa
        0x08000daa:    2800        .(      CMP      r0,#0
        0x08000dac:    d016        ..      BEQ      0x8000ddc ; LLWTR_Isr + 108
        0x08000dae:    2203        ."      MOVS     r2,#3
        0x08000db0:    4669        iF      MOV      r1,sp
        0x08000db2:    20ff        .       MOVS     r0,#0xff
        0x08000db4:    f000ff18    ....    BL       SPI_PDMA_SetRx_Isr ; 0x8001be8
        0x08000db8:    4e29        )N      LDR      r6,[pc,#164] ; [0x8000e60] = 0x20000284
        0x08000dba:    2223        #"      MOVS     r2,#0x23
        0x08000dbc:    79b0        .y      LDRB     r0,[r6,#6]
        0x08000dbe:    a904        ..      ADD      r1,sp,#0x10
        0x08000dc0:    0704        ..      LSLS     r4,r0,#28
        0x08000dc2:    0f24        $.      LSRS     r4,r4,#28
        0x08000dc4:    20ff        .       MOVS     r0,#0xff
        0x08000dc6:    f000ff0f    ....    BL       SPI_PDMA_SetRx_Isr ; 0x8001be8
        0x08000dca:    f000fb9d    ....    BL       RF_RxFIFOrst ; 0x8001508
        0x08000dce:    4668        hF      MOV      r0,sp
        0x08000dd0:    7800        .x      LDRB     r0,[r0,#0]
        0x08000dd2:    0701        ..      LSLS     r1,r0,#28
        0x08000dd4:    0f09        ..      LSRS     r1,r1,#28
        0x08000dd6:    2903        .)      CMP      r1,#3
        0x08000dd8:    d11b        ..      BNE      0x8000e12 ; LLWTR_Isr + 162
        0x08000dda:    e005        ..      B        0x8000de8 ; LLWTR_Isr + 120
        0x08000ddc:    f000fb94    ....    BL       RF_RxFIFOrst ; 0x8001508
        0x08000de0:    f001fee6    ....    BL       rafael_reset_phy_fsm_Isr ; 0x8002bb0
        0x08000de4:    b010        ..      ADD      sp,sp,#0x40
        0x08000de6:    bd70        p.      POP      {r4-r6,pc}
        0x08000de8:    2c00        .,      CMP      r4,#0
        0x08000dea:    d001        ..      BEQ      0x8000df0 ; LLWTR_Isr + 128
        0x08000dec:    2c06        .,      CMP      r4,#6
        0x08000dee:    d110        ..      BNE      0x8000e12 ; LLWTR_Isr + 162
        0x08000df0:    7c31        1|      LDRB     r1,[r6,#0x10]
        0x08000df2:    2901        .)      CMP      r1,#1
        0x08000df4:    d001        ..      BEQ      0x8000dfa ; LLWTR_Isr + 138
        0x08000df6:    2903        .)      CMP      r1,#3
        0x08000df8:    d104        ..      BNE      0x8000e04 ; LLWTR_Isr + 148
        0x08000dfa:    a902        ..      ADD      r1,sp,#8
        0x08000dfc:    f000fd80    ....    BL       RF_cmpFIFO_WhiteList ; 0x8001900
        0x08000e00:    2800        .(      CMP      r0,#0
        0x08000e02:    d106        ..      BNE      0x8000e12 ; LLWTR_Isr + 162
        0x08000e04:    4668        hF      MOV      r0,sp
        0x08000e06:    7800        .x      LDRB     r0,[r0,#0]
        0x08000e08:    a902        ..      ADD      r1,sp,#8
        0x08000e0a:    f000fd5f    .._.    BL       RF_cmpFIFO_BDAddr ; 0x80018cc
        0x08000e0e:    2800        .(      CMP      r0,#0
        0x08000e10:    d006        ..      BEQ      0x8000e20 ; LLWTR_Isr + 176
        0x08000e12:    7828        (x      LDRB     r0,[r5,#0]
        0x08000e14:    280f        .(      CMP      r0,#0xf
        0x08000e16:    d1e5        ..      BNE      0x8000de4 ; LLWTR_Isr + 116
        0x08000e18:    f001feca    ....    BL       rafael_reset_phy_fsm_Isr ; 0x8002bb0
        0x08000e1c:    b010        ..      ADD      sp,sp,#0x40
        0x08000e1e:    bd70        p.      POP      {r4-r6,pc}
        0x08000e20:    79b0        .y      LDRB     r0,[r6,#6]
        0x08000e22:    0901        ..      LSRS     r1,r0,#4
        0x08000e24:    0109        ..      LSLS     r1,r1,#4
        0x08000e26:    480f        .H      LDR      r0,[pc,#60] ; [0x8000e64] = 0x20000046
        0x08000e28:    1d09        ..      ADDS     r1,r1,#4
        0x08000e2a:    7001        .p      STRB     r1,[r0,#0]
        0x08000e2c:    490e        .I      LDR      r1,[pc,#56] ; [0x8000e68] = 0x200002a4
        0x08000e2e:    7c49        I|      LDRB     r1,[r1,#0x11]
        0x08000e30:    1d89        ..      ADDS     r1,r1,#6
        0x08000e32:    7041        Ap      STRB     r1,[r0,#1]
        0x08000e34:    f000fafc    ....    BL       RF_LE_HeaderStsLen_Tx ; 0x8001430
        0x08000e38:    79f0        .y      LDRB     r0,[r6,#7]
        0x08000e3a:    2800        .(      CMP      r0,#0
        0x08000e3c:    d009        ..      BEQ      0x8000e52 ; LLWTR_Isr + 226
        0x08000e3e:    480b        .H      LDR      r0,[pc,#44] ; [0x8000e6c] = 0x2000005e
        0x08000e40:    f000fccc    ....    BL       RF_TxFIFO_ADVaddr_set ; 0x80017dc
        0x08000e44:    480a        .H      LDR      r0,[pc,#40] ; [0x8000e70] = 0x200002b6
        0x08000e46:    f000fcbd    ....    BL       RF_TxFIFO_ADVData_set ; 0x80017c4
        0x08000e4a:    200d        .       MOVS     r0,#0xd
        0x08000e4c:    7028        (p      STRB     r0,[r5,#0]
        0x08000e4e:    b010        ..      ADD      sp,sp,#0x40
        0x08000e50:    bd70        p.      POP      {r4-r6,pc}
        0x08000e52:    4808        .H      LDR      r0,[pc,#32] ; [0x8000e74] = 0x20000066
        0x08000e54:    e7f4        ..      B        0x8000e40 ; LLWTR_Isr + 208
        0x08000e56:    4770        pG      BX       lr
    $d
        0x08000e58:    2000004c    L..     DCD    536870988
        0x08000e5c:    20000043    C..     DCD    536870979
        0x08000e60:    20000284    ...     DCD    536871556
        0x08000e64:    20000046    F..     DCD    536870982
        0x08000e68:    200002a4    ...     DCD    536871588
        0x08000e6c:    2000005e    ^..     DCD    536871006
        0x08000e70:    200002b6    ...     DCD    536871606
        0x08000e74:    20000066    f..     DCD    536871014
    $t
    i.LL_GPIO_Isr
    LL_GPIO_Isr
        0x08000e78:    b5f8        ..      PUSH     {r3-r7,lr}
        0x08000e7a:    f000fa21    ..!.    BL       RF_DC_Rstr_Isr ; 0x80012c0
        0x08000e7e:    4828        (H      LDR      r0,[pc,#160] ; [0x8000f20] = 0x20000064
        0x08000e80:    2754        T'      MOVS     r7,#0x54
        0x08000e82:    7800        .x      LDRB     r0,[r0,#0]
        0x08000e84:    2614        .&      MOVS     r6,#0x14
        0x08000e86:    4d27        'M      LDR      r5,[pc,#156] ; [0x8000f24] = 0x2000009c
        0x08000e88:    2866        f(      CMP      r0,#0x66
        0x08000e8a:    d01e        ..      BEQ      0x8000eca ; LL_GPIO_Isr + 82
        0x08000e8c:    203e        >       MOVS     r0,#0x3e
        0x08000e8e:    f000fd7f    ....    BL       SPI_1BYT_SetRx_Isr ; 0x8001990
        0x08000e92:    4604        .F      MOV      r4,r0
        0x08000e94:    403c        <@      ANDS     r4,r4,r7
        0x08000e96:    b672        r.      CPSID    i
        0x08000e98:    702c        ,p      STRB     r4,[r5,#0]
        0x08000e9a:    4621        !F      MOV      r1,r4
        0x08000e9c:    203e        >       MOVS     r0,#0x3e
        0x08000e9e:    f000fdc5    ....    BL       SPI_1BYT_SetTx_Isr ; 0x8001a2c
        0x08000ea2:    b662        b.      CPSIE    i
        0x08000ea4:    4234        4B      TST      r4,r6
        0x08000ea6:    d007        ..      BEQ      0x8000eb8 ; LL_GPIO_Isr + 64
        0x08000ea8:    0760        `.      LSLS     r0,r4,#29
        0x08000eaa:    d501        ..      BPL      0x8000eb0 ; LL_GPIO_Isr + 56
        0x08000eac:    f001fea6    ....    BL       rafael_spi_clear_tx_fifo_cnt ; 0x8002bfc
        0x08000eb0:    b672        r.      CPSID    i
        0x08000eb2:    f7ffff5d    ..].    BL       LLWTR_Isr ; 0x8000d70
        0x08000eb6:    b662        b.      CPSIE    i
        0x08000eb8:    0660        `.      LSLS     r0,r4,#25
        0x08000eba:    d503        ..      BPL      0x8000ec4 ; LL_GPIO_Isr + 76
        0x08000ebc:    b672        r.      CPSID    i
        0x08000ebe:    f7fffc49    ..I.    BL       LLTimer_Isr ; 0x8000754
        0x08000ec2:    b662        b.      CPSIE    i
        0x08000ec4:    f000fef0    ....    BL       SPI_PDMA_waitFinish ; 0x8001ca8
        0x08000ec8:    bdf8        ..      POP      {r3-r7,pc}
        0x08000eca:    24ab        .$      MOVS     r4,#0xab
        0x08000ecc:    203e        >       MOVS     r0,#0x3e
        0x08000ece:    f000fd5f    .._.    BL       SPI_1BYT_SetRx_Isr ; 0x8001990
        0x08000ed2:    4602        .F      MOV      r2,r0
        0x08000ed4:    4220         B      TST      r0,r4
        0x08000ed6:    d1f9        ..      BNE      0x8000ecc ; LL_GPIO_Isr + 84
        0x08000ed8:    4614        .F      MOV      r4,r2
        0x08000eda:    403c        <@      ANDS     r4,r4,r7
        0x08000edc:    b672        r.      CPSID    i
        0x08000ede:    d005        ..      BEQ      0x8000eec ; LL_GPIO_Isr + 116
        0x08000ee0:    702c        ,p      STRB     r4,[r5,#0]
        0x08000ee2:    4621        !F      MOV      r1,r4
        0x08000ee4:    203e        >       MOVS     r0,#0x3e
        0x08000ee6:    f000fda1    ....    BL       SPI_1BYT_SetTx_Isr ; 0x8001a2c
        0x08000eea:    e007        ..      B        0x8000efc ; LL_GPIO_Isr + 132
        0x08000eec:    7828        (x      LDRB     r0,[r5,#0]
        0x08000eee:    0641        A.      LSLS     r1,r0,#25
        0x08000ef0:    d503        ..      BPL      0x8000efa ; LL_GPIO_Isr + 130
        0x08000ef2:    2840        @(      CMP      r0,#0x40
        0x08000ef4:    d102        ..      BNE      0x8000efc ; LL_GPIO_Isr + 132
        0x08000ef6:    2414        .$      MOVS     r4,#0x14
        0x08000ef8:    e000        ..      B        0x8000efc ; LL_GPIO_Isr + 132
        0x08000efa:    2440        @$      MOVS     r4,#0x40
        0x08000efc:    b662        b.      CPSIE    i
        0x08000efe:    4234        4B      TST      r4,r6
        0x08000f00:    d007        ..      BEQ      0x8000f12 ; LL_GPIO_Isr + 154
        0x08000f02:    0760        `.      LSLS     r0,r4,#29
        0x08000f04:    d501        ..      BPL      0x8000f0a ; LL_GPIO_Isr + 146
        0x08000f06:    f001fe79    ..y.    BL       rafael_spi_clear_tx_fifo_cnt ; 0x8002bfc
        0x08000f0a:    b672        r.      CPSID    i
        0x08000f0c:    f7ffff30    ..0.    BL       LLWTR_Isr ; 0x8000d70
        0x08000f10:    b662        b.      CPSIE    i
        0x08000f12:    0660        `.      LSLS     r0,r4,#25
        0x08000f14:    d5d8        ..      BPL      0x8000ec8 ; LL_GPIO_Isr + 80
        0x08000f16:    b672        r.      CPSID    i
        0x08000f18:    f7fffc1c    ....    BL       LLTimer_Isr ; 0x8000754
        0x08000f1c:    b662        b.      CPSIE    i
        0x08000f1e:    bdf8        ..      POP      {r3-r7,pc}
    $d
        0x08000f20:    20000064    d..     DCD    536871012
        0x08000f24:    2000009c    ...     DCD    536871068
    $t
    i.LL_MsgBlk_LL_conn_Para_Rls
    LL_MsgBlk_LL_conn_Para_Rls
        0x08000f28:    4770        pG      BX       lr
        0x08000f2a:    0000        ..      MOVS     r0,r0
    i.LL_ReleaseConnID
    LL_ReleaseConnID
        0x08000f2c:    2188        .!      MOVS     r1,#0x88
        0x08000f2e:    4348        HC      MULS     r0,r1,r0
        0x08000f30:    b510        ..      PUSH     {r4,lr}
        0x08000f32:    490b        .I      LDR      r1,[pc,#44] ; [0x8000f60] = 0x200002d8
        0x08000f34:    2288        ."      MOVS     r2,#0x88
        0x08000f36:    1844        D.      ADDS     r4,r0,r1
        0x08000f38:    39dc        .9      SUBS     r1,r1,#0xdc
        0x08000f3a:    4620         F      MOV      r0,r4
        0x08000f3c:    f7fffbf0    ....    BL       Knl_CodeCpy ; 0x8000720
        0x08000f40:    b672        r.      CPSID    i
        0x08000f42:    2101        .!      MOVS     r1,#1
        0x08000f44:    4620         F      MOV      r0,r4
        0x08000f46:    7021        !p      STRB     r1,[r4,#0]
        0x08000f48:    3060        `0      ADDS     r0,r0,#0x60
        0x08000f4a:    7741        Aw      STRB     r1,[r0,#0x1d]
        0x08000f4c:    7781        .w      STRB     r1,[r0,#0x1e]
        0x08000f4e:    211b        .!      MOVS     r1,#0x1b
        0x08000f50:    77c1        .w      STRB     r1,[r0,#0x1f]
        0x08000f52:    3480        .4      ADDS     r4,r4,#0x80
        0x08000f54:    7021        !p      STRB     r1,[r4,#0]
        0x08000f56:    7061        ap      STRB     r1,[r4,#1]
        0x08000f58:    70a1        .p      STRB     r1,[r4,#2]
        0x08000f5a:    b662        b.      CPSIE    i
        0x08000f5c:    bd10        ..      POP      {r4,pc}
    $d
        0x08000f5e:    0000        ..      DCW    0
        0x08000f60:    200002d8    ...     DCD    536871640
    $t
    i.LL_TmrBlk_Pt_PairRst
    LL_TmrBlk_Pt_PairRst
        0x08000f64:    4909        .I      LDR      r1,[pc,#36] ; [0x8000f8c] = 0x20000040
        0x08000f66:    7888        .x      LDRB     r0,[r1,#2]
        0x08000f68:    280c        .(      CMP      r0,#0xc
        0x08000f6a:    d00b        ..      BEQ      0x8000f84 ; LL_TmrBlk_Pt_PairRst + 32
        0x08000f6c:    2206        ."      MOVS     r2,#6
        0x08000f6e:    4350        PC      MULS     r0,r2,r0
        0x08000f70:    4a07        .J      LDR      r2,[pc,#28] ; [0x8000f90] = 0x2000059c
        0x08000f72:    1880        ..      ADDS     r0,r0,r2
        0x08000f74:    60c8        .`      STR      r0,[r1,#0xc]
        0x08000f76:    7800        .x      LDRB     r0,[r0,#0]
        0x08000f78:    280c        .(      CMP      r0,#0xc
        0x08000f7a:    d004        ..      BEQ      0x8000f86 ; LL_TmrBlk_Pt_PairRst + 34
        0x08000f7c:    2306        .#      MOVS     r3,#6
        0x08000f7e:    4358        XC      MULS     r0,r3,r0
        0x08000f80:    1880        ..      ADDS     r0,r0,r2
        0x08000f82:    6108        .a      STR      r0,[r1,#0x10]
        0x08000f84:    4770        pG      BX       lr
        0x08000f86:    2000        .       MOVS     r0,#0
        0x08000f88:    e7fb        ..      B        0x8000f82 ; LL_TmrBlk_Pt_PairRst + 30
    $d
        0x08000f8a:    0000        ..      DCW    0
        0x08000f8c:    20000040    @..     DCD    536870976
        0x08000f90:    2000059c    ...     DCD    536872348
    $t
    i.LL_TmrBlk_Rls
    LL_TmrBlk_Rls
        0x08000f94:    4a0c        .J      LDR      r2,[pc,#48] ; [0x8000fc8] = 0x20000040
        0x08000f96:    68d1        .h      LDR      r1,[r2,#0xc]
        0x08000f98:    7853        Sx      LDRB     r3,[r2,#1]
        0x08000f9a:    7808        .x      LDRB     r0,[r1,#0]
        0x08000f9c:    700b        .p      STRB     r3,[r1,#0]
        0x08000f9e:    7891        .x      LDRB     r1,[r2,#2]
        0x08000fa0:    7051        Qp      STRB     r1,[r2,#1]
        0x08000fa2:    2100        .!      MOVS     r1,#0
        0x08000fa4:    7090        .p      STRB     r0,[r2,#2]
        0x08000fa6:    280c        .(      CMP      r0,#0xc
        0x08000fa8:    d00a        ..      BEQ      0x8000fc0 ; LL_TmrBlk_Rls + 44
        0x08000faa:    6910        .i      LDR      r0,[r2,#0x10]
        0x08000fac:    60d0        .`      STR      r0,[r2,#0xc]
        0x08000fae:    7800        .x      LDRB     r0,[r0,#0]
        0x08000fb0:    280c        .(      CMP      r0,#0xc
        0x08000fb2:    d006        ..      BEQ      0x8000fc2 ; LL_TmrBlk_Rls + 46
        0x08000fb4:    2106        .!      MOVS     r1,#6
        0x08000fb6:    4348        HC      MULS     r0,r1,r0
        0x08000fb8:    4904        .I      LDR      r1,[pc,#16] ; [0x8000fcc] = 0x2000059c
        0x08000fba:    1840        @.      ADDS     r0,r0,r1
        0x08000fbc:    6110        .a      STR      r0,[r2,#0x10]
        0x08000fbe:    4770        pG      BX       lr
        0x08000fc0:    60d1        .`      STR      r1,[r2,#0xc]
        0x08000fc2:    6111        .a      STR      r1,[r2,#0x10]
        0x08000fc4:    4770        pG      BX       lr
    $d
        0x08000fc6:    0000        ..      DCW    0
        0x08000fc8:    20000040    @..     DCD    536870976
        0x08000fcc:    2000059c    ...     DCD    536872348
    $t
    i.LL_TmrBlk_Rls_Pair
    LL_TmrBlk_Rls_Pair
        0x08000fd0:    b430        0.      PUSH     {r4,r5}
        0x08000fd2:    4a10        .J      LDR      r2,[pc,#64] ; [0x8001014] = 0x20000040
        0x08000fd4:    6911        .i      LDR      r1,[r2,#0x10]
        0x08000fd6:    7853        Sx      LDRB     r3,[r2,#1]
        0x08000fd8:    7808        .x      LDRB     r0,[r1,#0]
        0x08000fda:    700b        .p      STRB     r3,[r1,#0]
        0x08000fdc:    7893        .x      LDRB     r3,[r2,#2]
        0x08000fde:    7053        Sp      STRB     r3,[r2,#1]
        0x08000fe0:    7090        .p      STRB     r0,[r2,#2]
        0x08000fe2:    8849        I.      LDRH     r1,[r1,#2]
        0x08000fe4:    2300        .#      MOVS     r3,#0
        0x08000fe6:    280c        .(      CMP      r0,#0xc
        0x08000fe8:    d010        ..      BEQ      0x800100c ; LL_TmrBlk_Rls_Pair + 60
        0x08000fea:    2406        .$      MOVS     r4,#6
        0x08000fec:    4360        `C      MULS     r0,r4,r0
        0x08000fee:    4c0a        .L      LDR      r4,[pc,#40] ; [0x8001018] = 0x2000059c
        0x08000ff0:    1900        ..      ADDS     r0,r0,r4
        0x08000ff2:    60d0        .`      STR      r0,[r2,#0xc]
        0x08000ff4:    8845        E.      LDRH     r5,[r0,#2]
        0x08000ff6:    1869        i.      ADDS     r1,r5,r1
        0x08000ff8:    8041        A.      STRH     r1,[r0,#2]
        0x08000ffa:    7800        .x      LDRB     r0,[r0,#0]
        0x08000ffc:    280c        .(      CMP      r0,#0xc
        0x08000ffe:    d006        ..      BEQ      0x800100e ; LL_TmrBlk_Rls_Pair + 62
        0x08001000:    2106        .!      MOVS     r1,#6
        0x08001002:    4348        HC      MULS     r0,r1,r0
        0x08001004:    1900        ..      ADDS     r0,r0,r4
        0x08001006:    6110        .a      STR      r0,[r2,#0x10]
        0x08001008:    bc30        0.      POP      {r4,r5}
        0x0800100a:    4770        pG      BX       lr
        0x0800100c:    60d3        .`      STR      r3,[r2,#0xc]
        0x0800100e:    6113        .a      STR      r3,[r2,#0x10]
        0x08001010:    bc30        0.      POP      {r4,r5}
        0x08001012:    4770        pG      BX       lr
    $d
        0x08001014:    20000040    @..     DCD    536870976
        0x08001018:    2000059c    ...     DCD    536872348
    $t
    i.LL_TxEnter_Isr
    LL_TxEnter_Isr
        0x0800101c:    b570        p.      PUSH     {r4-r6,lr}
        0x0800101e:    4d11        .M      LDR      r5,[pc,#68] ; [0x8001064] = 0x200005e4
        0x08001020:    7b2c        ,{      LDRB     r4,[r5,#0xc]
        0x08001022:    20bf        .       MOVS     r0,#0xbf
        0x08001024:    4004        .@      ANDS     r4,r4,r0
        0x08001026:    4621        !F      MOV      r1,r4
        0x08001028:    2079        y       MOVS     r0,#0x79
        0x0800102a:    f000fcff    ....    BL       SPI_1BYT_SetTx_Isr ; 0x8001a2c
        0x0800102e:    732c        ,s      STRB     r4,[r5,#0xc]
        0x08001030:    490d        .I      LDR      r1,[pc,#52] ; [0x8001068] = 0x20000096
        0x08001032:    2002        .       MOVS     r0,#2
        0x08001034:    7008        .p      STRB     r0,[r1,#0]
        0x08001036:    480d        .H      LDR      r0,[pc,#52] ; [0x800106c] = 0x20000064
        0x08001038:    7801        .x      LDRB     r1,[r0,#0]
        0x0800103a:    2040        @       MOVS     r0,#0x40
        0x0800103c:    2966        f)      CMP      r1,#0x66
        0x0800103e:    d005        ..      BEQ      0x800104c ; LL_TxEnter_Isr + 48
        0x08001040:    7aa9        .z      LDRB     r1,[r5,#0xa]
        0x08001042:    4301        .C      ORRS     r1,r1,r0
        0x08001044:    2077        w       MOVS     r0,#0x77
        0x08001046:    f000fcf1    ....    BL       SPI_1BYT_SetTx_Isr ; 0x8001a2c
        0x0800104a:    bd70        p.      POP      {r4-r6,pc}
        0x0800104c:    4a08        .J      LDR      r2,[pc,#32] ; [0x8001070] = 0x20000070
        0x0800104e:    7aab        .z      LDRB     r3,[r5,#0xa]
        0x08001050:    7911        .y      LDRB     r1,[r2,#4]
        0x08001052:    4319        .C      ORRS     r1,r1,r3
        0x08001054:    4301        .C      ORRS     r1,r1,r0
        0x08001056:    7111        .q      STRB     r1,[r2,#4]
        0x08001058:    2206        ."      MOVS     r2,#6
        0x0800105a:    4905        .I      LDR      r1,[pc,#20] ; [0x8001070] = 0x20000070
        0x0800105c:    2073        s       MOVS     r0,#0x73
        0x0800105e:    f000fdf1    ....    BL       SPI_PDMA_SetTx ; 0x8001c44
        0x08001062:    bd70        p.      POP      {r4-r6,pc}
    $d
        0x08001064:    200005e4    ...     DCD    536872420
        0x08001068:    20000096    ...     DCD    536871062
        0x0800106c:    20000064    d..     DCD    536871012
        0x08001070:    20000070    p..     DCD    536871024
    $t
    i.MCU_GpioIntDisable
    MCU_GpioIntDisable
        0x08001074:    b53e        >.      PUSH     {r1-r5,lr}
        0x08001076:    2101        .!      MOVS     r1,#1
        0x08001078:    4608        .F      MOV      r0,r1
        0x0800107a:    f000f8af    ....    BL       RCC_APB2PeriphClockCmd ; 0x80011dc
        0x0800107e:    2108        .!      MOVS     r1,#8
        0x08001080:    2001        .       MOVS     r0,#1
        0x08001082:    f7fffacf    ....    BL       EXTI_LineConfig ; 0x8000624
        0x08001086:    20ff        .       MOVS     r0,#0xff
        0x08001088:    3001        .0      ADDS     r0,#1
        0x0800108a:    9000        ..      STR      r0,[sp,#0]
        0x0800108c:    2400        .$      MOVS     r4,#0
        0x0800108e:    4669        iF      MOV      r1,sp
        0x08001090:    710c        .q      STRB     r4,[r1,#4]
        0x08001092:    714c        Lq      STRB     r4,[r1,#5]
        0x08001094:    718c        .q      STRB     r4,[r1,#6]
        0x08001096:    4668        hF      MOV      r0,sp
        0x08001098:    f7fffa98    ....    BL       EXTI_Init ; 0x80005cc
        0x0800109c:    2007        .       MOVS     r0,#7
        0x0800109e:    4669        iF      MOV      r1,sp
        0x080010a0:    7208        .r      STRB     r0,[r1,#8]
        0x080010a2:    724c        Lr      STRB     r4,[r1,#9]
        0x080010a4:    728c        .r      STRB     r4,[r1,#0xa]
        0x080010a6:    a802        ..      ADD      r0,sp,#8
        0x080010a8:    f000f836    ..6.    BL       NVIC_Init ; 0x8001118
        0x080010ac:    bd3e        >.      POP      {r1-r5,pc}
    i.MCU_GpioIntEnable
    MCU_GpioIntEnable
        0x080010ae:    b53e        >.      PUSH     {r1-r5,lr}
        0x080010b0:    f000f81c    ....    BL       MCU_GpioPinInit ; 0x80010ec
        0x080010b4:    2101        .!      MOVS     r1,#1
        0x080010b6:    4608        .F      MOV      r0,r1
        0x080010b8:    f000f890    ....    BL       RCC_APB2PeriphClockCmd ; 0x80011dc
        0x080010bc:    2108        .!      MOVS     r1,#8
        0x080010be:    2001        .       MOVS     r0,#1
        0x080010c0:    f7fffab0    ....    BL       EXTI_LineConfig ; 0x8000624
        0x080010c4:    20ff        .       MOVS     r0,#0xff
        0x080010c6:    3001        .0      ADDS     r0,#1
        0x080010c8:    9000        ..      STR      r0,[sp,#0]
        0x080010ca:    2400        .$      MOVS     r4,#0
        0x080010cc:    4668        hF      MOV      r0,sp
        0x080010ce:    7104        .q      STRB     r4,[r0,#4]
        0x080010d0:    7144        Dq      STRB     r4,[r0,#5]
        0x080010d2:    2501        .%      MOVS     r5,#1
        0x080010d4:    7185        .q      STRB     r5,[r0,#6]
        0x080010d6:    f7fffa79    ..y.    BL       EXTI_Init ; 0x80005cc
        0x080010da:    2107        .!      MOVS     r1,#7
        0x080010dc:    4668        hF      MOV      r0,sp
        0x080010de:    7201        .r      STRB     r1,[r0,#8]
        0x080010e0:    7244        Dr      STRB     r4,[r0,#9]
        0x080010e2:    7285        .r      STRB     r5,[r0,#0xa]
        0x080010e4:    a802        ..      ADD      r0,sp,#8
        0x080010e6:    f000f817    ....    BL       NVIC_Init ; 0x8001118
        0x080010ea:    bd3e        >.      POP      {r1-r5,pc}
    i.MCU_GpioPinInit
    MCU_GpioPinInit
        0x080010ec:    b508        ..      PUSH     {r3,lr}
        0x080010ee:    2101        .!      MOVS     r1,#1
        0x080010f0:    0488        ..      LSLS     r0,r1,#18
        0x080010f2:    f000f85b    ..[.    BL       RCC_AHBPeriphClockCmd ; 0x80011ac
        0x080010f6:    4668        hF      MOV      r0,sp
        0x080010f8:    f7fffb0a    ....    BL       GPIO_StructInit ; 0x8000710
        0x080010fc:    20ff        .       MOVS     r0,#0xff
        0x080010fe:    3001        .0      ADDS     r0,#1
        0x08001100:    4669        iF      MOV      r1,sp
        0x08001102:    8008        ..      STRH     r0,[r1,#0]
        0x08001104:    2001        .       MOVS     r0,#1
        0x08001106:    7088        .p      STRB     r0,[r1,#2]
        0x08001108:    2004        .       MOVS     r0,#4
        0x0800110a:    70c8        .p      STRB     r0,[r1,#3]
        0x0800110c:    4801        .H      LDR      r0,[pc,#4] ; [0x8001114] = 0x48000400
        0x0800110e:    f7fffaa3    ....    BL       GPIO_Init ; 0x8000658
        0x08001112:    bd08        ..      POP      {r3,pc}
    $d
        0x08001114:    48000400    ...H    DCD    1207960576
    $t
    i.NVIC_Init
    NVIC_Init
        0x08001118:    b530        0.      PUSH     {r4,r5,lr}
        0x0800111a:    7882        .x      LDRB     r2,[r0,#2]
        0x0800111c:    2401        .$      MOVS     r4,#1
        0x0800111e:    7801        .x      LDRB     r1,[r0,#0]
        0x08001120:    2a00        .*      CMP      r2,#0
        0x08001122:    d015        ..      BEQ      0x8001150 ; NVIC_Init + 56
        0x08001124:    088b        ..      LSRS     r3,r1,#2
        0x08001126:    4a0e        .J      LDR      r2,[pc,#56] ; [0x8001160] = 0xe000e400
        0x08001128:    009b        ..      LSLS     r3,r3,#2
        0x0800112a:    189a        ..      ADDS     r2,r3,r2
        0x0800112c:    6813        .h      LDR      r3,[r2,#0]
        0x0800112e:    0789        ..      LSLS     r1,r1,#30
        0x08001130:    0ec9        ..      LSRS     r1,r1,#27
        0x08001132:    25ff        .%      MOVS     r5,#0xff
        0x08001134:    408d        .@      LSLS     r5,r5,r1
        0x08001136:    43ab        .C      BICS     r3,r3,r5
        0x08001138:    7845        Ex      LDRB     r5,[r0,#1]
        0x0800113a:    07ad        ..      LSLS     r5,r5,#30
        0x0800113c:    0e2d        -.      LSRS     r5,r5,#24
        0x0800113e:    408d        .@      LSLS     r5,r5,r1
        0x08001140:    432b        +C      ORRS     r3,r3,r5
        0x08001142:    6013        .`      STR      r3,[r2,#0]
        0x08001144:    7800        .x      LDRB     r0,[r0,#0]
        0x08001146:    06c0        ..      LSLS     r0,r0,#27
        0x08001148:    0ec0        ..      LSRS     r0,r0,#27
        0x0800114a:    4084        .@      LSLS     r4,r4,r0
        0x0800114c:    4805        .H      LDR      r0,[pc,#20] ; [0x8001164] = 0xe000e100
        0x0800114e:    e004        ..      B        0x800115a ; NVIC_Init + 66
        0x08001150:    06c8        ..      LSLS     r0,r1,#27
        0x08001152:    0ec0        ..      LSRS     r0,r0,#27
        0x08001154:    4084        .@      LSLS     r4,r4,r0
        0x08001156:    4803        .H      LDR      r0,[pc,#12] ; [0x8001164] = 0xe000e100
        0x08001158:    3080        .0      ADDS     r0,r0,#0x80
        0x0800115a:    6004        .`      STR      r4,[r0,#0]
        0x0800115c:    bd30        0.      POP      {r4,r5,pc}
    $d
        0x0800115e:    0000        ..      DCW    0
        0x08001160:    e000e400    ....    DCD    3758154752
        0x08001164:    e000e100    ....    DCD    3758153984
    $t
    i.NVIC_SetPriority
    NVIC_SetPriority
        0x08001168:    0783        ..      LSLS     r3,r0,#30
        0x0800116a:    22ff        ."      MOVS     r2,#0xff
        0x0800116c:    0edb        ..      LSRS     r3,r3,#27
        0x0800116e:    409a        .@      LSLS     r2,r2,r3
        0x08001170:    0789        ..      LSLS     r1,r1,#30
        0x08001172:    0e09        ..      LSRS     r1,r1,#24
        0x08001174:    4099        .@      LSLS     r1,r1,r3
        0x08001176:    2800        .(      CMP      r0,#0
        0x08001178:    da0b        ..      BGE      0x8001192 ; NVIC_SetPriority + 42
        0x0800117a:    0700        ..      LSLS     r0,r0,#28
        0x0800117c:    0f00        ..      LSRS     r0,r0,#28
        0x0800117e:    3808        .8      SUBS     r0,r0,#8
        0x08001180:    0883        ..      LSRS     r3,r0,#2
        0x08001182:    4808        .H      LDR      r0,[pc,#32] ; [0x80011a4] = 0xe000ed00
        0x08001184:    009b        ..      LSLS     r3,r3,#2
        0x08001186:    1818        ..      ADDS     r0,r3,r0
        0x08001188:    69c3        .i      LDR      r3,[r0,#0x1c]
        0x0800118a:    4393        .C      BICS     r3,r3,r2
        0x0800118c:    430b        .C      ORRS     r3,r3,r1
        0x0800118e:    61c3        .a      STR      r3,[r0,#0x1c]
        0x08001190:    4770        pG      BX       lr
        0x08001192:    0883        ..      LSRS     r3,r0,#2
        0x08001194:    4804        .H      LDR      r0,[pc,#16] ; [0x80011a8] = 0xe000e400
        0x08001196:    009b        ..      LSLS     r3,r3,#2
        0x08001198:    1818        ..      ADDS     r0,r3,r0
        0x0800119a:    6803        .h      LDR      r3,[r0,#0]
        0x0800119c:    4393        .C      BICS     r3,r3,r2
        0x0800119e:    430b        .C      ORRS     r3,r3,r1
        0x080011a0:    6003        .`      STR      r3,[r0,#0]
        0x080011a2:    4770        pG      BX       lr
    $d
        0x080011a4:    e000ed00    ....    DCD    3758157056
        0x080011a8:    e000e400    ....    DCD    3758154752
    $t
    i.RCC_AHBPeriphClockCmd
    RCC_AHBPeriphClockCmd
        0x080011ac:    4a04        .J      LDR      r2,[pc,#16] ; [0x80011c0] = 0x40021000
        0x080011ae:    2900        .)      CMP      r1,#0
        0x080011b0:    6951        Qi      LDR      r1,[r2,#0x14]
        0x080011b2:    d001        ..      BEQ      0x80011b8 ; RCC_AHBPeriphClockCmd + 12
        0x080011b4:    4301        .C      ORRS     r1,r1,r0
        0x080011b6:    e000        ..      B        0x80011ba ; RCC_AHBPeriphClockCmd + 14
        0x080011b8:    4381        .C      BICS     r1,r1,r0
        0x080011ba:    6151        Qa      STR      r1,[r2,#0x14]
        0x080011bc:    4770        pG      BX       lr
    $d
        0x080011be:    0000        ..      DCW    0
        0x080011c0:    40021000    ...@    DCD    1073876992
    $t
    i.RCC_APB1PeriphClockCmd
    RCC_APB1PeriphClockCmd
        0x080011c4:    4a04        .J      LDR      r2,[pc,#16] ; [0x80011d8] = 0x40021000
        0x080011c6:    2900        .)      CMP      r1,#0
        0x080011c8:    69d1        .i      LDR      r1,[r2,#0x1c]
        0x080011ca:    d001        ..      BEQ      0x80011d0 ; RCC_APB1PeriphClockCmd + 12
        0x080011cc:    4301        .C      ORRS     r1,r1,r0
        0x080011ce:    e000        ..      B        0x80011d2 ; RCC_APB1PeriphClockCmd + 14
        0x080011d0:    4381        .C      BICS     r1,r1,r0
        0x080011d2:    61d1        .a      STR      r1,[r2,#0x1c]
        0x080011d4:    4770        pG      BX       lr
    $d
        0x080011d6:    0000        ..      DCW    0
        0x080011d8:    40021000    ...@    DCD    1073876992
    $t
    i.RCC_APB2PeriphClockCmd
    RCC_APB2PeriphClockCmd
        0x080011dc:    4a04        .J      LDR      r2,[pc,#16] ; [0x80011f0] = 0x40021000
        0x080011de:    2900        .)      CMP      r1,#0
        0x080011e0:    6991        .i      LDR      r1,[r2,#0x18]
        0x080011e2:    d001        ..      BEQ      0x80011e8 ; RCC_APB2PeriphClockCmd + 12
        0x080011e4:    4301        .C      ORRS     r1,r1,r0
        0x080011e6:    e000        ..      B        0x80011ea ; RCC_APB2PeriphClockCmd + 14
        0x080011e8:    4381        .C      BICS     r1,r1,r0
        0x080011ea:    6191        .a      STR      r1,[r2,#0x18]
        0x080011ec:    4770        pG      BX       lr
    $d
        0x080011ee:    0000        ..      DCW    0
        0x080011f0:    40021000    ...@    DCD    1073876992
    $t
    i.RCC_GetHCLKFreq
    RCC_GetHCLKFreq
        0x080011f4:    b510        ..      PUSH     {r4,lr}
        0x080011f6:    f000f82d    ..-.    BL       RCC_GetSysClockFreq ; 0x8001254
        0x080011fa:    4904        .I      LDR      r1,[pc,#16] ; [0x800120c] = 0x40021000
        0x080011fc:    6849        Ih      LDR      r1,[r1,#4]
        0x080011fe:    4a04        .J      LDR      r2,[pc,#16] ; [0x8001210] = 0x200001e8
        0x08001200:    0609        ..      LSLS     r1,r1,#24
        0x08001202:    0f09        ..      LSRS     r1,r1,#28
        0x08001204:    5c51        Q\      LDRB     r1,[r2,r1]
        0x08001206:    40c8        .@      LSRS     r0,r0,r1
        0x08001208:    bd10        ..      POP      {r4,pc}
    $d
        0x0800120a:    0000        ..      DCW    0
        0x0800120c:    40021000    ...@    DCD    1073876992
        0x08001210:    200001e8    ...     DCD    536871400
    $t
    i.RCC_GetPCLK1Freq
    RCC_GetPCLK1Freq
        0x08001214:    b510        ..      PUSH     {r4,lr}
        0x08001216:    f7ffffed    ....    BL       RCC_GetHCLKFreq ; 0x80011f4
        0x0800121a:    4904        .I      LDR      r1,[pc,#16] ; [0x800122c] = 0x40021000
        0x0800121c:    6849        Ih      LDR      r1,[r1,#4]
        0x0800121e:    4a04        .J      LDR      r2,[pc,#16] ; [0x8001230] = 0x200001e8
        0x08001220:    0549        I.      LSLS     r1,r1,#21
        0x08001222:    0f49        I.      LSRS     r1,r1,#29
        0x08001224:    5c51        Q\      LDRB     r1,[r2,r1]
        0x08001226:    40c8        .@      LSRS     r0,r0,r1
        0x08001228:    bd10        ..      POP      {r4,pc}
    $d
        0x0800122a:    0000        ..      DCW    0
        0x0800122c:    40021000    ...@    DCD    1073876992
        0x08001230:    200001e8    ...     DCD    536871400
    $t
    i.RCC_GetPCLK2Freq
    RCC_GetPCLK2Freq
        0x08001234:    b510        ..      PUSH     {r4,lr}
        0x08001236:    f7ffffdd    ....    BL       RCC_GetHCLKFreq ; 0x80011f4
        0x0800123a:    4904        .I      LDR      r1,[pc,#16] ; [0x800124c] = 0x40021000
        0x0800123c:    6849        Ih      LDR      r1,[r1,#4]
        0x0800123e:    4a04        .J      LDR      r2,[pc,#16] ; [0x8001250] = 0x200001e8
        0x08001240:    0489        ..      LSLS     r1,r1,#18
        0x08001242:    0f49        I.      LSRS     r1,r1,#29
        0x08001244:    5c51        Q\      LDRB     r1,[r2,r1]
        0x08001246:    40c8        .@      LSRS     r0,r0,r1
        0x08001248:    bd10        ..      POP      {r4,pc}
    $d
        0x0800124a:    0000        ..      DCW    0
        0x0800124c:    40021000    ...@    DCD    1073876992
        0x08001250:    200001e8    ...     DCD    536871400
    $t
    i.RCC_GetSysClockFreq
    RCC_GetSysClockFreq
        0x08001254:    b510        ..      PUSH     {r4,lr}
        0x08001256:    4a0e        .J      LDR      r2,[pc,#56] ; [0x8001290] = 0x40021000
        0x08001258:    6851        Qh      LDR      r1,[r2,#4]
        0x0800125a:    200c        .       MOVS     r0,#0xc
        0x0800125c:    4001        .@      ANDS     r1,r1,r0
        0x0800125e:    480d        .H      LDR      r0,[pc,#52] ; [0x8001294] = 0x7a1200
        0x08001260:    2904        .)      CMP      r1,#4
        0x08001262:    d014        ..      BEQ      0x800128e ; RCC_GetSysClockFreq + 58
        0x08001264:    2908        .)      CMP      r1,#8
        0x08001266:    d112        ..      BNE      0x800128e ; RCC_GetSysClockFreq + 58
        0x08001268:    6851        Qh      LDR      r1,[r2,#4]
        0x0800126a:    03c9        ..      LSLS     r1,r1,#15
        0x0800126c:    d504        ..      BPL      0x8001278 ; RCC_GetSysClockFreq + 36
        0x0800126e:    6851        Qh      LDR      r1,[r2,#4]
        0x08001270:    0389        ..      LSLS     r1,r1,#14
        0x08001272:    d502        ..      BPL      0x800127a ; RCC_GetSysClockFreq + 38
        0x08001274:    1040        @.      ASRS     r0,r0,#1
        0x08001276:    e000        ..      B        0x800127a ; RCC_GetSysClockFreq + 38
        0x08001278:    4807        .H      LDR      r0,[pc,#28] ; [0x8001298] = 0xb71b00
        0x0800127a:    6811        .h      LDR      r1,[r2,#0]
        0x0800127c:    0e8b        ..      LSRS     r3,r1,#26
        0x0800127e:    6811        .h      LDR      r1,[r2,#0]
        0x08001280:    1c5b        [.      ADDS     r3,r3,#1
        0x08001282:    0249        I.      LSLS     r1,r1,#9
        0x08001284:    0f49        I.      LSRS     r1,r1,#29
        0x08001286:    4358        XC      MULS     r0,r3,r0
        0x08001288:    1c49        I.      ADDS     r1,r1,#1
        0x0800128a:    f7feff53    ..S.    BL       __aeabi_uidiv ; 0x8000134
        0x0800128e:    bd10        ..      POP      {r4,pc}
    $d
        0x08001290:    40021000    ...@    DCD    1073876992
        0x08001294:    007a1200    ..z.    DCD    8000000
        0x08001298:    00b71b00    ....    DCD    12000000
    $t
    i.RF_CRCInit
    RF_CRCInit
        0x0800129c:    b510        ..      PUSH     {r4,lr}
        0x0800129e:    2204        ."      MOVS     r2,#4
        0x080012a0:    4601        .F      MOV      r1,r0
        0x080012a2:    2070        p       MOVS     r0,#0x70
        0x080012a4:    f000fcce    ....    BL       SPI_PDMA_SetTx ; 0x8001c44
        0x080012a8:    bd10        ..      POP      {r4,pc}
    i.RF_CRCchk
    RF_CRCchk
        0x080012aa:    b510        ..      PUSH     {r4,lr}
        0x080012ac:    206b        k       MOVS     r0,#0x6b
        0x080012ae:    f000fb6f    ..o.    BL       SPI_1BYT_SetRx_Isr ; 0x8001990
        0x080012b2:    0740        @.      LSLS     r0,r0,#29
        0x080012b4:    d501        ..      BPL      0x80012ba ; RF_CRCchk + 16
        0x080012b6:    2001        .       MOVS     r0,#1
        0x080012b8:    bd10        ..      POP      {r4,pc}
        0x080012ba:    2000        .       MOVS     r0,#0
        0x080012bc:    bd10        ..      POP      {r4,pc}
        0x080012be:    0000        ..      MOVS     r0,r0
    i.RF_DC_Rstr_Isr
    RF_DC_Rstr_Isr
        0x080012c0:    b570        p.      PUSH     {r4-r6,lr}
        0x080012c2:    4d08        .M      LDR      r5,[pc,#32] ; [0x80012e4] = 0x20000098
        0x080012c4:    7968        hy      LDRB     r0,[r5,#5]
        0x080012c6:    2801        .(      CMP      r0,#1
        0x080012c8:    d10a        ..      BNE      0x80012e0 ; RF_DC_Rstr_Isr + 32
        0x080012ca:    4c07        .L      LDR      r4,[pc,#28] ; [0x80012e8] = 0x200005e4
        0x080012cc:    78e1        .x      LDRB     r1,[r4,#3]
        0x080012ce:    2029        )       MOVS     r0,#0x29
        0x080012d0:    f000fbac    ....    BL       SPI_1BYT_SetTx_Isr ; 0x8001a2c
        0x080012d4:    7921        !y      LDRB     r1,[r4,#4]
        0x080012d6:    202a        *       MOVS     r0,#0x2a
        0x080012d8:    f000fba8    ....    BL       SPI_1BYT_SetTx_Isr ; 0x8001a2c
        0x080012dc:    2000        .       MOVS     r0,#0
        0x080012de:    7168        hq      STRB     r0,[r5,#5]
        0x080012e0:    bd70        p.      POP      {r4-r6,pc}
    $d
        0x080012e2:    0000        ..      DCW    0
        0x080012e4:    20000098    ...     DCD    536871064
        0x080012e8:    200005e4    ...     DCD    536872420
    $t
    i.RF_Init
    RF_Init
        0x080012ec:    b5f0        ..      PUSH     {r4-r7,lr}
        0x080012ee:    b09f        ..      SUB      sp,sp,#0x7c
        0x080012f0:    2178        x!      MOVS     r1,#0x78
        0x080012f2:    4668        hF      MOV      r0,sp
        0x080012f4:    f7feff4f    ..O.    BL       __aeabi_memclr ; 0x8000196
        0x080012f8:    f7fffebc    ....    BL       MCU_GpioIntDisable ; 0x8001074
        0x080012fc:    2000        .       MOVS     r0,#0
        0x080012fe:    f000fb21    ..!.    BL       SPI_1BYT_SetRx ; 0x8001944
        0x08001302:    4d44        DM      LDR      r5,[pc,#272] ; [0x8001414] = 0x20000064
        0x08001304:    7028        (p      STRB     r0,[r5,#0]
        0x08001306:    2000        .       MOVS     r0,#0
        0x08001308:    4943        CI      LDR      r1,[pc,#268] ; [0x8001418] = 0x20000142
        0x0800130a:    460a        .F      MOV      r2,r1
        0x0800130c:    3a80        .:      SUBS     r2,r2,#0x80
        0x0800130e:    4c43        CL      LDR      r4,[pc,#268] ; [0x800141c] = 0x200005e4
        0x08001310:    5c0b        .\      LDRB     r3,[r1,r0]
        0x08001312:    5cd3        .\      LDRB     r3,[r2,r3]
        0x08001314:    5423        #T      STRB     r3,[r4,r0]
        0x08001316:    1c40        @.      ADDS     r0,r0,#1
        0x08001318:    280e        .(      CMP      r0,#0xe
        0x0800131a:    d3f9        ..      BCC      0x8001310 ; RF_Init + 36
        0x0800131c:    2002        .       MOVS     r0,#2
        0x0800131e:    4e3e        >N      LDR      r6,[pc,#248] ; [0x8001418] = 0x20000142
        0x08001320:    3eaa        .>      SUBS     r6,r6,#0xaa
        0x08001322:    221c        ."      MOVS     r2,#0x1c
        0x08001324:    493e        >I      LDR      r1,[pc,#248] ; [0x8001420] = 0x200001fc
        0x08001326:    61f0        .a      STR      r0,[r6,#0x1c]
        0x08001328:    20fe        .       MOVS     r0,#0xfe
        0x0800132a:    f000fc8b    ....    BL       SPI_PDMA_SetTx ; 0x8001c44
        0x0800132e:    2228        ("      MOVS     r2,#0x28
        0x08001330:    4631        1F      MOV      r1,r6
        0x08001332:    3132        21      ADDS     r1,r1,#0x32
        0x08001334:    2008        .       MOVS     r0,#8
        0x08001336:    f000fc85    ....    BL       SPI_PDMA_SetTx ; 0x8001c44
        0x0800133a:    2252        R"      MOVS     r2,#0x52
        0x0800133c:    4631        1F      MOV      r1,r6
        0x0800133e:    3159        Y1      ADDS     r1,r1,#0x59
        0x08001340:    202f        /       MOVS     r0,#0x2f
        0x08001342:    f000fc7f    ....    BL       SPI_PDMA_SetTx ; 0x8001c44
        0x08001346:    7828        (x      LDRB     r0,[r5,#0]
        0x08001348:    2866        f(      CMP      r0,#0x66
        0x0800134a:    d107        ..      BNE      0x800135c ; RF_Init + 112
        0x0800134c:    4630        0F      MOV      r0,r6
        0x0800134e:    306a        j0      ADDS     r0,r0,#0x6a
        0x08001350:    7a81        .z      LDRB     r1,[r0,#0xa]
        0x08001352:    2008        .       MOVS     r0,#8
        0x08001354:    4301        .C      ORRS     r1,r1,r0
        0x08001356:    204a        J       MOVS     r0,#0x4a
        0x08001358:    f000fb44    ..D.    BL       SPI_1BYT_SetTx ; 0x80019e4
        0x0800135c:    7a20         z      LDRB     r0,[r4,#8]
        0x0800135e:    2180        .!      MOVS     r1,#0x80
        0x08001360:    4308        .C      ORRS     r0,r0,r1
        0x08001362:    7220         r      STRB     r0,[r4,#8]
        0x08001364:    7a21        !z      LDRB     r1,[r4,#8]
        0x08001366:    2069        i       MOVS     r0,#0x69
        0x08001368:    f000fb3c    ..<.    BL       SPI_1BYT_SetTx ; 0x80019e4
        0x0800136c:    20ff        .       MOVS     r0,#0xff
        0x0800136e:    f000f8d1    ....    BL       RF_RxLengthLimit ; 0x8001514
        0x08001372:    210d        .!      MOVS     r1,#0xd
        0x08001374:    20ac        .       MOVS     r0,#0xac
        0x08001376:    f000fb35    ..5.    BL       SPI_1BYT_SetTx ; 0x80019e4
        0x0800137a:    2140        @!      MOVS     r1,#0x40
        0x0800137c:    20af        .       MOVS     r0,#0xaf
        0x0800137e:    f000fb31    ..1.    BL       SPI_1BYT_SetTx ; 0x80019e4
        0x08001382:    2100        .!      MOVS     r1,#0
        0x08001384:    20fa        .       MOVS     r0,#0xfa
        0x08001386:    f000fb2d    ..-.    BL       SPI_1BYT_SetTx ; 0x80019e4
        0x0800138a:    217f        .!      MOVS     r1,#0x7f
        0x0800138c:    203e        >       MOVS     r0,#0x3e
        0x0800138e:    f000fb29    ..).    BL       SPI_1BYT_SetTx ; 0x80019e4
        0x08001392:    2180        .!      MOVS     r1,#0x80
        0x08001394:    2066        f       MOVS     r0,#0x66
        0x08001396:    f000fb25    ..%.    BL       SPI_1BYT_SetTx ; 0x80019e4
        0x0800139a:    f001fc21    ..!.    BL       rafael_spi_clear_fifo ; 0x8002be0
        0x0800139e:    f001fc2d    ..-.    BL       rafael_spi_clear_tx_fifo_cnt ; 0x8002bfc
        0x080013a2:    7aa0        .z      LDRB     r0,[r4,#0xa]
        0x080013a4:    0680        ..      LSLS     r0,r0,#26
        0x080013a6:    0e80        ..      LSRS     r0,r0,#26
        0x080013a8:    72a0        .r      STRB     r0,[r4,#0xa]
        0x080013aa:    7aa1        .z      LDRB     r1,[r4,#0xa]
        0x080013ac:    2077        w       MOVS     r0,#0x77
        0x080013ae:    f000fb19    ....    BL       SPI_1BYT_SetTx ; 0x80019e4
        0x080013b2:    7ae0        .z      LDRB     r0,[r4,#0xb]
        0x080013b4:    2504        .%      MOVS     r5,#4
        0x080013b6:    4328        (C      ORRS     r0,r0,r5
        0x080013b8:    72e0        .r      STRB     r0,[r4,#0xb]
        0x080013ba:    7ae0        .z      LDRB     r0,[r4,#0xb]
        0x080013bc:    215f        _!      MOVS     r1,#0x5f
        0x080013be:    4008        .@      ANDS     r0,r0,r1
        0x080013c0:    72e0        .r      STRB     r0,[r4,#0xb]
        0x080013c2:    7ae1        .z      LDRB     r1,[r4,#0xb]
        0x080013c4:    2078        x       MOVS     r0,#0x78
        0x080013c6:    f000fb0d    ....    BL       SPI_1BYT_SetTx ; 0x80019e4
        0x080013ca:    f001fbd5    ....    BL       rafael_reset_phy_fsm ; 0x8002b78
        0x080013ce:    2000        .       MOVS     r0,#0
        0x080013d0:    f000fa10    ....    BL       RF_TxFIFO_OriginAddr_set ; 0x80017f4
        0x080013d4:    78f0        .x      LDRB     r0,[r6,#3]
        0x080013d6:    2701        .'      MOVS     r7,#1
        0x080013d8:    2800        .(      CMP      r0,#0
        0x080013da:    d102        ..      BNE      0x80013e2 ; RF_Init + 246
        0x080013dc:    f001fb36    ..6.    BL       rafael_pll_calibration ; 0x8002a4c
        0x080013e0:    70f7        .p      STRB     r7,[r6,#3]
        0x080013e2:    7860        `x      LDRB     r0,[r4,#1]
        0x080013e4:    4328        (C      ORRS     r0,r0,r5
        0x080013e6:    7060        `p      STRB     r0,[r4,#1]
        0x080013e8:    7861        ax      LDRB     r1,[r4,#1]
        0x080013ea:    2024        $       MOVS     r0,#0x24
        0x080013ec:    f000fafa    ....    BL       SPI_1BYT_SetTx ; 0x80019e4
        0x080013f0:    2100        .!      MOVS     r1,#0
        0x080013f2:    209b        .       MOVS     r0,#0x9b
        0x080013f4:    f000faf6    ....    BL       SPI_1BYT_SetTx ; 0x80019e4
        0x080013f8:    f7fffe59    ..Y.    BL       MCU_GpioIntEnable ; 0x80010ae
        0x080013fc:    f7fff804    ....    BL       Ble_SW_Init ; 0x8000408
        0x08001400:    f000fa02    ....    BL       RF_Voltage_Det ; 0x8001808
        0x08001404:    4601        .F      MOV      r1,r0
        0x08001406:    7077        wp      STRB     r7,[r6,#1]
        0x08001408:    a006        ..      ADR      r0,{pc}+0x1c ; 0x8001424
        0x0800140a:    f001f863    ..c.    BL       __0printf$5 ; 0x80024d4
        0x0800140e:    b01f        ..      ADD      sp,sp,#0x7c
        0x08001410:    bdf0        ..      POP      {r4-r7,pc}
    $d
        0x08001412:    0000        ..      DCW    0
        0x08001414:    20000064    d..     DCD    536871012
        0x08001418:    20000142    B..     DCD    536871234
        0x0800141c:    200005e4    ...     DCD    536872420
        0x08001420:    200001fc    ...     DCD    536871420
        0x08001424:    746c6f76    volt    DCD    1953263478
        0x08001428:    0a64253d    =%d.    DCD    174335293
        0x0800142c:    00000000    ....    DCD    0
    $t
    i.RF_LE_HeaderStsLen_Tx
    RF_LE_HeaderStsLen_Tx
        0x08001430:    b510        ..      PUSH     {r4,lr}
        0x08001432:    2200        ."      MOVS     r2,#0
        0x08001434:    4b03        .K      LDR      r3,[pc,#12] ; [0x8001444] = 0x20000098
        0x08001436:    4601        .F      MOV      r1,r0
        0x08001438:    20fe        .       MOVS     r0,#0xfe
        0x0800143a:    61da        .a      STR      r2,[r3,#0x1c]
        0x0800143c:    f000fb18    ....    BL       SPI_2BYT_SetTx_Isr ; 0x8001a70
        0x08001440:    bd10        ..      POP      {r4,pc}
    $d
        0x08001442:    0000        ..      DCW    0
        0x08001444:    20000098    ...     DCD    536871064
    $t
    i.RF_Open
    RF_Open
        0x08001448:    b538        8.      PUSH     {r3-r5,lr}
        0x0800144a:    2019        .       MOVS     r0,#0x19
        0x0800144c:    f000fef8    ....    BL       SysTick_DelayMs ; 0x8002240
        0x08001450:    2101        .!      MOVS     r1,#1
        0x08001452:    0488        ..      LSLS     r0,r1,#18
        0x08001454:    f7fffeaa    ....    BL       RCC_AHBPeriphClockCmd ; 0x80011ac
        0x08001458:    4668        hF      MOV      r0,sp
        0x0800145a:    f7fff959    ..Y.    BL       GPIO_StructInit ; 0x8000710
        0x0800145e:    2401        .$      MOVS     r4,#1
        0x08001460:    0264        d.      LSLS     r4,r4,#9
        0x08001462:    4669        iF      MOV      r1,sp
        0x08001464:    800c        ..      STRH     r4,[r1,#0]
        0x08001466:    2001        .       MOVS     r0,#1
        0x08001468:    7088        .p      STRB     r0,[r1,#2]
        0x0800146a:    2010        .       MOVS     r0,#0x10
        0x0800146c:    4d0f        .M      LDR      r5,[pc,#60] ; [0x80014ac] = 0x48000400
        0x0800146e:    70c8        .p      STRB     r0,[r1,#3]
        0x08001470:    4628        (F      MOV      r0,r5
        0x08001472:    f7fff8f1    ....    BL       GPIO_Init ; 0x8000658
        0x08001476:    4621        !F      MOV      r1,r4
        0x08001478:    4628        (F      MOV      r0,r5
        0x0800147a:    f7fff947    ..G.    BL       GPIO_SetBits ; 0x800070c
        0x0800147e:    2001        .       MOVS     r0,#1
        0x08001480:    f000fede    ....    BL       SysTick_DelayMs ; 0x8002240
        0x08001484:    4621        !F      MOV      r1,r4
        0x08001486:    4628        (F      MOV      r0,r5
        0x08001488:    f7fff93e    ..>.    BL       GPIO_ResetBits ; 0x8000708
        0x0800148c:    2001        .       MOVS     r0,#1
        0x0800148e:    f000fed7    ....    BL       SysTick_DelayMs ; 0x8002240
        0x08001492:    4621        !F      MOV      r1,r4
        0x08001494:    4628        (F      MOV      r0,r5
        0x08001496:    f7fff939    ..9.    BL       GPIO_SetBits ; 0x800070c
        0x0800149a:    2032        2       MOVS     r0,#0x32
        0x0800149c:    f000fed0    ....    BL       SysTick_DelayMs ; 0x8002240
        0x080014a0:    f000f86a    ..j.    BL       RF_SpiIoMapping ; 0x8001578
        0x080014a4:    f7ffff22    ..".    BL       RF_Init ; 0x80012ec
        0x080014a8:    bd38        8.      POP      {r3-r5,pc}
    $d
        0x080014aa:    0000        ..      DCW    0
        0x080014ac:    48000400    ...H    DCD    1207960576
    $t
    i.RF_PLL_VCO_Bank_set
    RF_PLL_VCO_Bank_set
        0x080014b0:    b510        ..      PUSH     {r4,lr}
        0x080014b2:    4904        .I      LDR      r1,[pc,#16] ; [0x80014c4] = 0x200000c2
        0x080014b4:    7b09        .{      LDRB     r1,[r1,#0xc]
        0x080014b6:    0989        ..      LSRS     r1,r1,#6
        0x080014b8:    0189        ..      LSLS     r1,r1,#6
        0x080014ba:    4301        .C      ORRS     r1,r1,r0
        0x080014bc:    200c        .       MOVS     r0,#0xc
        0x080014be:    f000fa91    ....    BL       SPI_1BYT_SetTx ; 0x80019e4
        0x080014c2:    bd10        ..      POP      {r4,pc}
    $d
        0x080014c4:    200000c2    ...     DCD    536871106
    $t
    i.RF_PowerSaving_En_Isr
    RF_PowerSaving_En_Isr
        0x080014c8:    b570        p.      PUSH     {r4-r6,lr}
        0x080014ca:    f000f99d    ....    BL       RF_Voltage_Det ; 0x8001808
        0x080014ce:    4d0c        .M      LDR      r5,[pc,#48] ; [0x8001500] = 0x200005e4
        0x080014d0:    78e9        .x      LDRB     r1,[r5,#3]
        0x080014d2:    20e0        .       MOVS     r0,#0xe0
        0x080014d4:    4301        .C      ORRS     r1,r1,r0
        0x080014d6:    792c        ,y      LDRB     r4,[r5,#4]
        0x080014d8:    2081        .       MOVS     r0,#0x81
        0x080014da:    4304        .C      ORRS     r4,r4,r0
        0x080014dc:    2029        )       MOVS     r0,#0x29
        0x080014de:    f000fa81    ....    BL       SPI_1BYT_SetTx ; 0x80019e4
        0x080014e2:    4621        !F      MOV      r1,r4
        0x080014e4:    202a        *       MOVS     r0,#0x2a
        0x080014e6:    f000fa7d    ..}.    BL       SPI_1BYT_SetTx ; 0x80019e4
        0x080014ea:    2001        .       MOVS     r0,#1
        0x080014ec:    4905        .I      LDR      r1,[pc,#20] ; [0x8001504] = 0x20000098
        0x080014ee:    7148        Hq      STRB     r0,[r1,#5]
        0x080014f0:    7ae9        .z      LDRB     r1,[r5,#0xb]
        0x080014f2:    2080        .       MOVS     r0,#0x80
        0x080014f4:    4301        .C      ORRS     r1,r1,r0
        0x080014f6:    2078        x       MOVS     r0,#0x78
        0x080014f8:    f000fa74    ..t.    BL       SPI_1BYT_SetTx ; 0x80019e4
        0x080014fc:    bd70        p.      POP      {r4-r6,pc}
    $d
        0x080014fe:    0000        ..      DCW    0
        0x08001500:    200005e4    ...     DCD    536872420
        0x08001504:    20000098    ...     DCD    536871064
    $t
    i.RF_RxFIFOrst
    RF_RxFIFOrst
        0x08001508:    b510        ..      PUSH     {r4,lr}
        0x0800150a:    2180        .!      MOVS     r1,#0x80
        0x0800150c:    206b        k       MOVS     r0,#0x6b
        0x0800150e:    f000fa8d    ....    BL       SPI_1BYT_SetTx_Isr ; 0x8001a2c
        0x08001512:    bd10        ..      POP      {r4,pc}
    i.RF_RxLengthLimit
    RF_RxLengthLimit
        0x08001514:    b510        ..      PUSH     {r4,lr}
        0x08001516:    4601        .F      MOV      r1,r0
        0x08001518:    20a5        .       MOVS     r0,#0xa5
        0x0800151a:    f000fa87    ....    BL       SPI_1BYT_SetTx_Isr ; 0x8001a2c
        0x0800151e:    bd10        ..      POP      {r4,pc}
    i.RF_Set_TxPowerLevel_Isr
    RF_Set_TxPowerLevel_Isr
        0x08001520:    b510        ..      PUSH     {r4,lr}
        0x08001522:    2800        .(      CMP      r0,#0
        0x08001524:    d007        ..      BEQ      0x8001536 ; RF_Set_TxPowerLevel_Isr + 22
        0x08001526:    2804        .(      CMP      r0,#4
        0x08001528:    d00b        ..      BEQ      0x8001542 ; RF_Set_TxPowerLevel_Isr + 34
        0x0800152a:    2808        .(      CMP      r0,#8
        0x0800152c:    d00f        ..      BEQ      0x800154e ; RF_Set_TxPowerLevel_Isr + 46
        0x0800152e:    280a        .(      CMP      r0,#0xa
        0x08001530:    d013        ..      BEQ      0x800155a ; RF_Set_TxPowerLevel_Isr + 58
        0x08001532:    2001        .       MOVS     r0,#1
        0x08001534:    bd10        ..      POP      {r4,pc}
        0x08001536:    2205        ."      MOVS     r2,#5
        0x08001538:    490b        .I      LDR      r1,[pc,#44] ; [0x8001568] = 0x200000a4
        0x0800153a:    2017        .       MOVS     r0,#0x17
        0x0800153c:    f000fb82    ....    BL       SPI_PDMA_SetTx ; 0x8001c44
        0x08001540:    e010        ..      B        0x8001564 ; RF_Set_TxPowerLevel_Isr + 68
        0x08001542:    2205        ."      MOVS     r2,#5
        0x08001544:    4909        .I      LDR      r1,[pc,#36] ; [0x800156c] = 0x200000a8
        0x08001546:    2017        .       MOVS     r0,#0x17
        0x08001548:    f000fb7c    ..|.    BL       SPI_PDMA_SetTx ; 0x8001c44
        0x0800154c:    e00a        ..      B        0x8001564 ; RF_Set_TxPowerLevel_Isr + 68
        0x0800154e:    2205        ."      MOVS     r2,#5
        0x08001550:    4907        .I      LDR      r1,[pc,#28] ; [0x8001570] = 0x200000ac
        0x08001552:    2017        .       MOVS     r0,#0x17
        0x08001554:    f000fb76    ..v.    BL       SPI_PDMA_SetTx ; 0x8001c44
        0x08001558:    e004        ..      B        0x8001564 ; RF_Set_TxPowerLevel_Isr + 68
        0x0800155a:    2205        ."      MOVS     r2,#5
        0x0800155c:    4905        .I      LDR      r1,[pc,#20] ; [0x8001574] = 0x200000b0
        0x0800155e:    2017        .       MOVS     r0,#0x17
        0x08001560:    f000fb70    ..p.    BL       SPI_PDMA_SetTx ; 0x8001c44
        0x08001564:    2000        .       MOVS     r0,#0
        0x08001566:    bd10        ..      POP      {r4,pc}
    $d
        0x08001568:    200000a4    ...     DCD    536871076
        0x0800156c:    200000a8    ...     DCD    536871080
        0x08001570:    200000ac    ...     DCD    536871084
        0x08001574:    200000b0    ...     DCD    536871088
    $t
    i.RF_SpiIoMapping
    RF_SpiIoMapping
        0x08001578:    b5f8        ..      PUSH     {r3-r7,lr}
        0x0800157a:    f000fae1    ....    BL       SPI_GPIO_Init ; 0x8001b40
        0x0800157e:    2501        .%      MOVS     r5,#1
        0x08001580:    4c23        #L      LDR      r4,[pc,#140] ; [0x8001610] = 0x48000400
        0x08001582:    032d        -.      LSLS     r5,r5,#12
        0x08001584:    89a0        ..      LDRH     r0,[r4,#0xc]
        0x08001586:    006e        n.      LSLS     r6,r5,#1
        0x08001588:    4328        (C      ORRS     r0,r0,r5
        0x0800158a:    43b0        .C      BICS     r0,r0,r6
        0x0800158c:    0440        @.      LSLS     r0,r0,#17
        0x0800158e:    0c40        @.      LSRS     r0,r0,#17
        0x08001590:    00af        ..      LSLS     r7,r5,#2
        0x08001592:    43b8        .C      BICS     r0,r0,r7
        0x08001594:    1129        ).      ASRS     r1,r5,#4
        0x08001596:    4388        .C      BICS     r0,r0,r1
        0x08001598:    81a0        ..      STRH     r0,[r4,#0xc]
        0x0800159a:    2019        .       MOVS     r0,#0x19
        0x0800159c:    f001f928    ..(.    BL       delay_us ; 0x80027f0
        0x080015a0:    2188        .!      MOVS     r1,#0x88
        0x080015a2:    20f8        .       MOVS     r0,#0xf8
        0x080015a4:    f001fb48    ..H.    BL       spiGpioWriteReg ; 0x8002c38
        0x080015a8:    2019        .       MOVS     r0,#0x19
        0x080015aa:    f001f921    ..!.    BL       delay_us ; 0x80027f0
        0x080015ae:    2146        F!      MOVS     r1,#0x46
        0x080015b0:    20f9        .       MOVS     r0,#0xf9
        0x080015b2:    f001fb41    ..A.    BL       spiGpioWriteReg ; 0x8002c38
        0x080015b6:    2019        .       MOVS     r0,#0x19
        0x080015b8:    f001f91a    ....    BL       delay_us ; 0x80027f0
        0x080015bc:    f000fac0    ....    BL       SPI_GPIO_Init ; 0x8001b40
        0x080015c0:    89a0        ..      LDRH     r0,[r4,#0xc]
        0x080015c2:    0161        a.      LSLS     r1,r4,#5
        0x080015c4:    4328        (C      ORRS     r0,r0,r5
        0x080015c6:    4330        0C      ORRS     r0,r0,r6
        0x080015c8:    4308        .C      ORRS     r0,r0,r1
        0x080015ca:    4338        8C      ORRS     r0,r0,r7
        0x080015cc:    11c9        ..      ASRS     r1,r1,#7
        0x080015ce:    4308        .C      ORRS     r0,r0,r1
        0x080015d0:    81a0        ..      STRH     r0,[r4,#0xc]
        0x080015d2:    200a        .       MOVS     r0,#0xa
        0x080015d4:    f000fe34    ..4.    BL       SysTick_DelayMs ; 0x8002240
        0x080015d8:    f7fffd88    ....    BL       MCU_GpioPinInit ; 0x80010ec
        0x080015dc:    f7fefea0    ....    BL       BSP_SPI_BLE_Init ; 0x8000320
        0x080015e0:    21c6        .!      MOVS     r1,#0xc6
        0x080015e2:    20f9        .       MOVS     r0,#0xf9
        0x080015e4:    f000f9fe    ....    BL       SPI_1BYT_SetTx ; 0x80019e4
        0x080015e8:    21c0        .!      MOVS     r1,#0xc0
        0x080015ea:    2035        5       MOVS     r0,#0x35
        0x080015ec:    f000f9fa    ....    BL       SPI_1BYT_SetTx ; 0x80019e4
        0x080015f0:    21c0        .!      MOVS     r1,#0xc0
        0x080015f2:    2028        (       MOVS     r0,#0x28
        0x080015f4:    f000f9f6    ....    BL       SPI_1BYT_SetTx ; 0x80019e4
        0x080015f8:    2019        .       MOVS     r0,#0x19
        0x080015fa:    f000fe21    ..!.    BL       SysTick_DelayMs ; 0x8002240
        0x080015fe:    2180        .!      MOVS     r1,#0x80
        0x08001600:    2035        5       MOVS     r0,#0x35
        0x08001602:    f000f9ef    ....    BL       SPI_1BYT_SetTx ; 0x80019e4
        0x08001606:    200a        .       MOVS     r0,#0xa
        0x08001608:    f000fe1a    ....    BL       SysTick_DelayMs ; 0x8002240
        0x0800160c:    bdf8        ..      POP      {r3-r7,pc}
    $d
        0x0800160e:    0000        ..      DCW    0
        0x08001610:    48000400    ...H    DCD    1207960576
    $t
    i.RF_SymbolRate_Patch_1M_2M
    RF_SymbolRate_Patch_1M_2M
        0x08001614:    b510        ..      PUSH     {r4,lr}
        0x08001616:    4a08        .J      LDR      r2,[pc,#32] ; [0x8001638] = 0x200005e4
        0x08001618:    2800        .(      CMP      r0,#0
        0x0800161a:    d004        ..      BEQ      0x8001626 ; RF_SymbolRate_Patch_1M_2M + 18
        0x0800161c:    211f        .!      MOVS     r1,#0x1f
        0x0800161e:    7ad0        .z      LDRB     r0,[r2,#0xb]
        0x08001620:    2308        .#      MOVS     r3,#8
        0x08001622:    4318        .C      ORRS     r0,r0,r3
        0x08001624:    e003        ..      B        0x800162e ; RF_SymbolRate_Patch_1M_2M + 26
        0x08001626:    2111        .!      MOVS     r1,#0x11
        0x08001628:    7ad0        .z      LDRB     r0,[r2,#0xb]
        0x0800162a:    23f7        .#      MOVS     r3,#0xf7
        0x0800162c:    4018        .@      ANDS     r0,r0,r3
        0x0800162e:    72d0        .r      STRB     r0,[r2,#0xb]
        0x08001630:    205e        ^       MOVS     r0,#0x5e
        0x08001632:    f000f9fb    ....    BL       SPI_1BYT_SetTx_Isr ; 0x8001a2c
        0x08001636:    bd10        ..      POP      {r4,pc}
    $d
        0x08001638:    200005e4    ...     DCD    536872420
    $t
    i.RF_SymbolRate_set
    RF_SymbolRate_set
        0x0800163c:    b510        ..      PUSH     {r4,lr}
        0x0800163e:    4a07        .J      LDR      r2,[pc,#28] ; [0x800165c] = 0x200005e4
        0x08001640:    2800        .(      CMP      r0,#0
        0x08001642:    7ad1        .z      LDRB     r1,[r2,#0xb]
        0x08001644:    d002        ..      BEQ      0x800164c ; RF_SymbolRate_set + 16
        0x08001646:    2008        .       MOVS     r0,#8
        0x08001648:    4301        .C      ORRS     r1,r1,r0
        0x0800164a:    e001        ..      B        0x8001650 ; RF_SymbolRate_set + 20
        0x0800164c:    20f7        .       MOVS     r0,#0xf7
        0x0800164e:    4001        .@      ANDS     r1,r1,r0
        0x08001650:    72d1        .r      STRB     r1,[r2,#0xb]
        0x08001652:    2078        x       MOVS     r0,#0x78
        0x08001654:    f000f9ea    ....    BL       SPI_1BYT_SetTx_Isr ; 0x8001a2c
        0x08001658:    bd10        ..      POP      {r4,pc}
    $d
        0x0800165a:    0000        ..      DCW    0
        0x0800165c:    200005e4    ...     DCD    536872420
    $t
    i.RF_Tmr_Periodic_initial
    RF_Tmr_Periodic_initial
        0x08001660:    b5f0        ..      PUSH     {r4-r7,lr}
        0x08001662:    b083        ..      SUB      sp,sp,#0xc
        0x08001664:    460f        .F      MOV      r7,r1
        0x08001666:    4604        .F      MOV      r4,r0
        0x08001668:    2000        .       MOVS     r0,#0
        0x0800166a:    9000        ..      STR      r0,[sp,#0]
        0x0800166c:    4d2e        .M      LDR      r5,[pc,#184] ; [0x8001728] = 0x200005e4
        0x0800166e:    9001        ..      STR      r0,[sp,#4]
        0x08001670:    79e9        .y      LDRB     r1,[r5,#7]
        0x08001672:    20bf        .       MOVS     r0,#0xbf
        0x08001674:    4001        .@      ANDS     r1,r1,r0
        0x08001676:    71e9        .q      STRB     r1,[r5,#7]
        0x08001678:    203d        =       MOVS     r0,#0x3d
        0x0800167a:    f000f9b3    ....    BL       SPI_1BYT_SetTx ; 0x80019e4
        0x0800167e:    2100        .!      MOVS     r1,#0
        0x08001680:    209f        .       MOVS     r0,#0x9f
        0x08001682:    f000f9af    ....    BL       SPI_1BYT_SetTx ; 0x80019e4
        0x08001686:    2680        .&      MOVS     r6,#0x80
        0x08001688:    4669        iF      MOV      r1,sp
        0x0800168a:    710e        .q      STRB     r6,[r1,#4]
        0x0800168c:    2206        ."      MOVS     r2,#6
        0x0800168e:    2062        b       MOVS     r0,#0x62
        0x08001690:    f000fad8    ....    BL       SPI_PDMA_SetTx ; 0x8001c44
        0x08001694:    f000fb08    ....    BL       SPI_PDMA_waitFinish ; 0x8001ca8
        0x08001698:    4620         F      MOV      r0,r4
        0x0800169a:    217d        }!      MOVS     r1,#0x7d
        0x0800169c:    4348        HC      MULS     r0,r1,r0
        0x0800169e:    2200        ."      MOVS     r2,#0
        0x080016a0:    4922        "I      LDR      r1,[pc,#136] ; [0x800172c] = 0x20000070
        0x080016a2:    600a        .`      STR      r2,[r1,#0]
        0x080016a4:    604a        J`      STR      r2,[r1,#4]
        0x080016a6:    4669        iF      MOV      r1,sp
        0x080016a8:    7008        .p      STRB     r0,[r1,#0]
        0x080016aa:    0a02        ..      LSRS     r2,r0,#8
        0x080016ac:    704a        Jp      STRB     r2,[r1,#1]
        0x080016ae:    0c02        ..      LSRS     r2,r0,#16
        0x080016b0:    708a        .p      STRB     r2,[r1,#2]
        0x080016b2:    0e00        ..      LSRS     r0,r0,#24
        0x080016b4:    70c8        .p      STRB     r0,[r1,#3]
        0x080016b6:    481e        .H      LDR      r0,[pc,#120] ; [0x8001730] = 0x20000064
        0x080016b8:    7800        .x      LDRB     r0,[r0,#0]
        0x080016ba:    2866        f(      CMP      r0,#0x66
        0x080016bc:    7aa8        .z      LDRB     r0,[r5,#0xa]
        0x080016be:    d026        &.      BEQ      0x800170e ; RF_Tmr_Periodic_initial + 174
        0x080016c0:    0940        @.      LSRS     r0,r0,#5
        0x080016c2:    0140        @.      LSLS     r0,r0,#5
        0x080016c4:    2120         !      MOVS     r1,#0x20
        0x080016c6:    4308        .C      ORRS     r0,r0,r1
        0x080016c8:    4669        iF      MOV      r1,sp
        0x080016ca:    7108        .q      STRB     r0,[r1,#4]
        0x080016cc:    2206        ."      MOVS     r2,#6
        0x080016ce:    2073        s       MOVS     r0,#0x73
        0x080016d0:    f000fab8    ....    BL       SPI_PDMA_SetTx ; 0x8001c44
        0x080016d4:    f000fae8    ....    BL       SPI_PDMA_waitFinish ; 0x8001ca8
        0x080016d8:    7aa9        .z      LDRB     r1,[r5,#0xa]
        0x080016da:    20df        .       MOVS     r0,#0xdf
        0x080016dc:    4001        .@      ANDS     r1,r1,r0
        0x080016de:    2077        w       MOVS     r0,#0x77
        0x080016e0:    f000f980    ....    BL       SPI_1BYT_SetTx ; 0x80019e4
        0x080016e4:    79e9        .y      LDRB     r1,[r5,#7]
        0x080016e6:    2040        @       MOVS     r0,#0x40
        0x080016e8:    4301        .C      ORRS     r1,r1,r0
        0x080016ea:    71e9        .q      STRB     r1,[r5,#7]
        0x080016ec:    203d        =       MOVS     r0,#0x3d
        0x080016ee:    f000f979    ..y.    BL       SPI_1BYT_SetTx ; 0x80019e4
        0x080016f2:    b2a0        ..      UXTH     r0,r4
        0x080016f4:    f000f81e    ....    BL       RF_Tmr_Periodic_set_ISR ; 0x8001734
        0x080016f8:    2f01        ./      CMP      r7,#1
        0x080016fa:    d012        ..      BEQ      0x8001722 ; RF_Tmr_Periodic_initial + 194
        0x080016fc:    7ae8        .z      LDRB     r0,[r5,#0xb]
        0x080016fe:    0641        A.      LSLS     r1,r0,#25
        0x08001700:    0e49        I.      LSRS     r1,r1,#25
        0x08001702:    72e9        .r      STRB     r1,[r5,#0xb]
        0x08001704:    2078        x       MOVS     r0,#0x78
        0x08001706:    f000f96d    ..m.    BL       SPI_1BYT_SetTx ; 0x80019e4
        0x0800170a:    b003        ..      ADD      sp,sp,#0xc
        0x0800170c:    bdf0        ..      POP      {r4-r7,pc}
        0x0800170e:    0940        @.      LSRS     r0,r0,#5
        0x08001710:    0140        @.      LSLS     r0,r0,#5
        0x08001712:    7108        .q      STRB     r0,[r1,#4]
        0x08001714:    2206        ."      MOVS     r2,#6
        0x08001716:    2073        s       MOVS     r0,#0x73
        0x08001718:    f000fa94    ....    BL       SPI_PDMA_SetTx ; 0x8001c44
        0x0800171c:    f000fac4    ....    BL       SPI_PDMA_waitFinish ; 0x8001ca8
        0x08001720:    e7e0        ..      B        0x80016e4 ; RF_Tmr_Periodic_initial + 132
        0x08001722:    7ae9        .z      LDRB     r1,[r5,#0xb]
        0x08001724:    4331        1C      ORRS     r1,r1,r6
        0x08001726:    e7ec        ..      B        0x8001702 ; RF_Tmr_Periodic_initial + 162
    $d
        0x08001728:    200005e4    ...     DCD    536872420
        0x0800172c:    20000070    p..     DCD    536871024
        0x08001730:    20000064    d..     DCD    536871012
    $t
    i.RF_Tmr_Periodic_set_ISR
    RF_Tmr_Periodic_set_ISR
        0x08001734:    b538        8.      PUSH     {r3-r5,lr}
        0x08001736:    4604        .F      MOV      r4,r0
        0x08001738:    4620         F      MOV      r0,r4
        0x0800173a:    217d        }!      MOVS     r1,#0x7d
        0x0800173c:    4348        HC      MULS     r0,r1,r0
        0x0800173e:    4605        .F      MOV      r5,r0
        0x08001740:    07c9        ..      LSLS     r1,r1,#31
        0x08001742:    4308        .C      ORRS     r0,r0,r1
        0x08001744:    9000        ..      STR      r0,[sp,#0]
        0x08001746:    2205        ."      MOVS     r2,#5
        0x08001748:    4669        iF      MOV      r1,sp
        0x0800174a:    209c        .       MOVS     r0,#0x9c
        0x0800174c:    f000fa7a    ..z.    BL       SPI_PDMA_SetTx ; 0x8001c44
        0x08001750:    17ea        ..      ASRS     r2,r5,#31
        0x08001752:    480d        .H      LDR      r0,[pc,#52] ; [0x8001788] = 0x20000070
        0x08001754:    6843        Ch      LDR      r3,[r0,#4]
        0x08001756:    6801        .h      LDR      r1,[r0,#0]
        0x08001758:    1869        i.      ADDS     r1,r5,r1
        0x0800175a:    415a        ZA      ADCS     r2,r2,r3
        0x0800175c:    6042        B`      STR      r2,[r0,#4]
        0x0800175e:    6001        .`      STR      r1,[r0,#0]
        0x08001760:    7901        .y      LDRB     r1,[r0,#4]
        0x08001762:    06c9        ..      LSLS     r1,r1,#27
        0x08001764:    0ec9        ..      LSRS     r1,r1,#27
        0x08001766:    7101        .q      STRB     r1,[r0,#4]
        0x08001768:    4908        .I      LDR      r1,[pc,#32] ; [0x800178c] = 0x20000098
        0x0800176a:    6888        .h      LDR      r0,[r1,#8]
        0x0800176c:    1900        ..      ADDS     r0,r0,r4
        0x0800176e:    6088        .`      STR      r0,[r1,#8]
        0x08001770:    4a07        .J      LDR      r2,[pc,#28] ; [0x8001790] = 0x200000a0
        0x08001772:    78d0        .x      LDRB     r0,[r2,#3]
        0x08001774:    28ef        .(      CMP      r0,#0xef
        0x08001776:    d902        ..      BLS      0x800177e ; RF_Tmr_Periodic_set_ISR + 74
        0x08001778:    0700        ..      LSLS     r0,r0,#28
        0x0800177a:    0f00        ..      LSRS     r0,r0,#28
        0x0800177c:    70d0        .p      STRB     r0,[r2,#3]
        0x0800177e:    80cc        ..      STRH     r4,[r1,#6]
        0x08001780:    f000fa92    ....    BL       SPI_PDMA_waitFinish ; 0x8001ca8
        0x08001784:    bd38        8.      POP      {r3-r5,pc}
    $d
        0x08001786:    0000        ..      DCW    0
        0x08001788:    20000070    p..     DCD    536871024
        0x0800178c:    20000098    ...     DCD    536871064
        0x08001790:    200000a0    ...     DCD    536871072
    $t
    i.RF_TxAutoAckOff
    RF_TxAutoAckOff
        0x08001794:    b510        ..      PUSH     {r4,lr}
        0x08001796:    4804        .H      LDR      r0,[pc,#16] ; [0x80017a8] = 0x200005e4
        0x08001798:    7ac1        .z      LDRB     r1,[r0,#0xb]
        0x0800179a:    22fb        ."      MOVS     r2,#0xfb
        0x0800179c:    4011        .@      ANDS     r1,r1,r2
        0x0800179e:    72c1        .r      STRB     r1,[r0,#0xb]
        0x080017a0:    2078        x       MOVS     r0,#0x78
        0x080017a2:    f000f943    ..C.    BL       SPI_1BYT_SetTx_Isr ; 0x8001a2c
        0x080017a6:    bd10        ..      POP      {r4,pc}
    $d
        0x080017a8:    200005e4    ...     DCD    536872420
    $t
    i.RF_TxAutoAckOn
    RF_TxAutoAckOn
        0x080017ac:    b510        ..      PUSH     {r4,lr}
        0x080017ae:    4804        .H      LDR      r0,[pc,#16] ; [0x80017c0] = 0x200005e4
        0x080017b0:    7ac1        .z      LDRB     r1,[r0,#0xb]
        0x080017b2:    2204        ."      MOVS     r2,#4
        0x080017b4:    4311        .C      ORRS     r1,r1,r2
        0x080017b6:    72c1        .r      STRB     r1,[r0,#0xb]
        0x080017b8:    2078        x       MOVS     r0,#0x78
        0x080017ba:    f000f937    ..7.    BL       SPI_1BYT_SetTx_Isr ; 0x8001a2c
        0x080017be:    bd10        ..      POP      {r4,pc}
    $d
        0x080017c0:    200005e4    ...     DCD    536872420
    $t
    i.RF_TxFIFO_ADVData_set
    RF_TxFIFO_ADVData_set
        0x080017c4:    b510        ..      PUSH     {r4,lr}
        0x080017c6:    2208        ."      MOVS     r2,#8
        0x080017c8:    4b03        .K      LDR      r3,[pc,#12] ; [0x80017d8] = 0x20000098
        0x080017ca:    61da        .a      STR      r2,[r3,#0x1c]
        0x080017cc:    2220         "      MOVS     r2,#0x20
        0x080017ce:    4601        .F      MOV      r1,r0
        0x080017d0:    20fe        .       MOVS     r0,#0xfe
        0x080017d2:    f000fa37    ..7.    BL       SPI_PDMA_SetTx ; 0x8001c44
        0x080017d6:    bd10        ..      POP      {r4,pc}
    $d
        0x080017d8:    20000098    ...     DCD    536871064
    $t
    i.RF_TxFIFO_ADVaddr_set
    RF_TxFIFO_ADVaddr_set
        0x080017dc:    b510        ..      PUSH     {r4,lr}
        0x080017de:    2202        ."      MOVS     r2,#2
        0x080017e0:    4b03        .K      LDR      r3,[pc,#12] ; [0x80017f0] = 0x20000098
        0x080017e2:    61da        .a      STR      r2,[r3,#0x1c]
        0x080017e4:    2207        ."      MOVS     r2,#7
        0x080017e6:    4601        .F      MOV      r1,r0
        0x080017e8:    20fe        .       MOVS     r0,#0xfe
        0x080017ea:    f000fa2b    ..+.    BL       SPI_PDMA_SetTx ; 0x8001c44
        0x080017ee:    bd10        ..      POP      {r4,pc}
    $d
        0x080017f0:    20000098    ...     DCD    536871064
    $t
    i.RF_TxFIFO_OriginAddr_set
    RF_TxFIFO_OriginAddr_set
        0x080017f4:    b501        ..      PUSH     {r0,lr}
        0x080017f6:    4669        iF      MOV      r1,sp
        0x080017f8:    8808        ..      LDRH     r0,[r1,#0]
        0x080017fa:    05c0        ..      LSLS     r0,r0,#23
        0x080017fc:    0dc0        ..      LSRS     r0,r0,#23
        0x080017fe:    8008        ..      STRH     r0,[r1,#0]
        0x08001800:    2068        h       MOVS     r0,#0x68
        0x08001802:    f000f935    ..5.    BL       SPI_2BYT_SetTx_Isr ; 0x8001a70
        0x08001806:    bd08        ..      POP      {r3,pc}
    i.RF_Voltage_Det
    RF_Voltage_Det
        0x08001808:    b538        8.      PUSH     {r3-r5,lr}
        0x0800180a:    2000        .       MOVS     r0,#0
        0x0800180c:    4669        iF      MOV      r1,sp
        0x0800180e:    7008        .p      STRB     r0,[r1,#0]
        0x08001810:    2004        .       MOVS     r0,#4
        0x08001812:    f000f897    ....    BL       SPI_1BYT_SetRx ; 0x8001944
        0x08001816:    4669        iF      MOV      r1,sp
        0x08001818:    7008        .p      STRB     r0,[r1,#0]
        0x0800181a:    7808        .x      LDRB     r0,[r1,#0]
        0x0800181c:    0680        ..      LSLS     r0,r0,#26
        0x0800181e:    0fc0        ..      LSRS     r0,r0,#31
        0x08001820:    7008        .p      STRB     r0,[r1,#0]
        0x08001822:    4d17        .M      LDR      r5,[pc,#92] ; [0x8001880] = 0x20000098
        0x08001824:    7828        (x      LDRB     r0,[r5,#0]
        0x08001826:    7809        .x      LDRB     r1,[r1,#0]
        0x08001828:    4288        .B      CMP      r0,r1
        0x0800182a:    d102        ..      BNE      0x8001832 ; RF_Voltage_Det + 42
        0x0800182c:    7868        hx      LDRB     r0,[r5,#1]
        0x0800182e:    2800        .(      CMP      r0,#0
        0x08001830:    d117        ..      BNE      0x8001862 ; RF_Voltage_Det + 90
        0x08001832:    4c14        .L      LDR      r4,[pc,#80] ; [0x8001884] = 0x200005e4
        0x08001834:    78a0        .x      LDRB     r0,[r4,#2]
        0x08001836:    2150        P!      MOVS     r1,#0x50
        0x08001838:    4308        .C      ORRS     r0,r0,r1
        0x0800183a:    70a0        .p      STRB     r0,[r4,#2]
        0x0800183c:    78a1        .x      LDRB     r1,[r4,#2]
        0x0800183e:    2028        (       MOVS     r0,#0x28
        0x08001840:    f000f8d0    ....    BL       SPI_1BYT_SetTx ; 0x80019e4
        0x08001844:    200a        .       MOVS     r0,#0xa
        0x08001846:    f000ffd3    ....    BL       delay_us ; 0x80027f0
        0x0800184a:    4668        hF      MOV      r0,sp
        0x0800184c:    7800        .x      LDRB     r0,[r0,#0]
        0x0800184e:    2801        .(      CMP      r0,#1
        0x08001850:    78a0        .x      LDRB     r0,[r4,#2]
        0x08001852:    d00c        ..      BEQ      0x800186e ; RF_Voltage_Det + 102
        0x08001854:    21ef        .!      MOVS     r1,#0xef
        0x08001856:    4008        .@      ANDS     r0,r0,r1
        0x08001858:    70a0        .p      STRB     r0,[r4,#2]
        0x0800185a:    78a1        .x      LDRB     r1,[r4,#2]
        0x0800185c:    2028        (       MOVS     r0,#0x28
        0x0800185e:    f000f8c1    ....    BL       SPI_1BYT_SetTx ; 0x80019e4
        0x08001862:    4668        hF      MOV      r0,sp
        0x08001864:    7800        .x      LDRB     r0,[r0,#0]
        0x08001866:    7028        (p      STRB     r0,[r5,#0]
        0x08001868:    4668        hF      MOV      r0,sp
        0x0800186a:    7800        .x      LDRB     r0,[r0,#0]
        0x0800186c:    bd38        8.      POP      {r3-r5,pc}
        0x0800186e:    21bf        .!      MOVS     r1,#0xbf
        0x08001870:    4008        .@      ANDS     r0,r0,r1
        0x08001872:    70a0        .p      STRB     r0,[r4,#2]
        0x08001874:    78a1        .x      LDRB     r1,[r4,#2]
        0x08001876:    2028        (       MOVS     r0,#0x28
        0x08001878:    f000f8b4    ....    BL       SPI_1BYT_SetTx ; 0x80019e4
        0x0800187c:    e7f1        ..      B        0x8001862 ; RF_Voltage_Det + 90
    $d
        0x0800187e:    0000        ..      DCW    0
        0x08001880:    20000098    ...     DCD    536871064
        0x08001884:    200005e4    ...     DCD    536872420
    $t
    i.RF_WTR_EnChk
    RF_WTR_EnChk
        0x08001888:    4803        .H      LDR      r0,[pc,#12] ; [0x8001898] = 0x20000096
        0x0800188a:    7800        .x      LDRB     r0,[r0,#0]
        0x0800188c:    0780        ..      LSLS     r0,r0,#30
        0x0800188e:    d001        ..      BEQ      0x8001894 ; RF_WTR_EnChk + 12
        0x08001890:    2000        .       MOVS     r0,#0
        0x08001892:    4770        pG      BX       lr
        0x08001894:    2001        .       MOVS     r0,#1
        0x08001896:    4770        pG      BX       lr
    $d
        0x08001898:    20000096    ...     DCD    536871062
    $t
    i.RF_WTR_intOff
    RF_WTR_intOff
        0x0800189c:    b510        ..      PUSH     {r4,lr}
        0x0800189e:    4804        .H      LDR      r0,[pc,#16] ; [0x80018b0] = 0x200005e4
        0x080018a0:    79c1        .y      LDRB     r1,[r0,#7]
        0x080018a2:    22eb        ."      MOVS     r2,#0xeb
        0x080018a4:    4011        .@      ANDS     r1,r1,r2
        0x080018a6:    71c1        .q      STRB     r1,[r0,#7]
        0x080018a8:    203d        =       MOVS     r0,#0x3d
        0x080018aa:    f000f8bf    ....    BL       SPI_1BYT_SetTx_Isr ; 0x8001a2c
        0x080018ae:    bd10        ..      POP      {r4,pc}
    $d
        0x080018b0:    200005e4    ...     DCD    536872420
    $t
    i.RF_WTR_intOn
    RF_WTR_intOn
        0x080018b4:    b510        ..      PUSH     {r4,lr}
        0x080018b6:    4804        .H      LDR      r0,[pc,#16] ; [0x80018c8] = 0x200005e4
        0x080018b8:    79c1        .y      LDRB     r1,[r0,#7]
        0x080018ba:    2214        ."      MOVS     r2,#0x14
        0x080018bc:    4311        .C      ORRS     r1,r1,r2
        0x080018be:    71c1        .q      STRB     r1,[r0,#7]
        0x080018c0:    203d        =       MOVS     r0,#0x3d
        0x080018c2:    f000f8b3    ....    BL       SPI_1BYT_SetTx_Isr ; 0x8001a2c
        0x080018c6:    bd10        ..      POP      {r4,pc}
    $d
        0x080018c8:    200005e4    ...     DCD    536872420
    $t
    i.RF_cmpFIFO_BDAddr
    RF_cmpFIFO_BDAddr
        0x080018cc:    b510        ..      PUSH     {r4,lr}
        0x080018ce:    4a09        .J      LDR      r2,[pc,#36] ; [0x80018f4] = 0x20000284
        0x080018d0:    310e        .1      ADDS     r1,r1,#0xe
        0x080018d2:    79d2        .y      LDRB     r2,[r2,#7]
        0x080018d4:    2a00        .*      CMP      r2,#0
        0x080018d6:    d006        ..      BEQ      0x80018e6 ; RF_cmpFIFO_BDAddr + 26
        0x080018d8:    0600        ..      LSLS     r0,r0,#24
        0x080018da:    d509        ..      BPL      0x80018f0 ; RF_cmpFIFO_BDAddr + 36
        0x080018dc:    2206        ."      MOVS     r2,#6
        0x080018de:    4806        .H      LDR      r0,[pc,#24] ; [0x80018f8] = 0x2000005e
        0x080018e0:    f7feff27    ..'.    BL       Knl_MemComp_Isr ; 0x8000732
        0x080018e4:    bd10        ..      POP      {r4,pc}
        0x080018e6:    0600        ..      LSLS     r0,r0,#24
        0x080018e8:    d402        ..      BMI      0x80018f0 ; RF_cmpFIFO_BDAddr + 36
        0x080018ea:    2206        ."      MOVS     r2,#6
        0x080018ec:    4803        .H      LDR      r0,[pc,#12] ; [0x80018fc] = 0x20000066
        0x080018ee:    e7f7        ..      B        0x80018e0 ; RF_cmpFIFO_BDAddr + 20
        0x080018f0:    2001        .       MOVS     r0,#1
        0x080018f2:    bd10        ..      POP      {r4,pc}
    $d
        0x080018f4:    20000284    ...     DCD    536871556
        0x080018f8:    2000005e    ^..     DCD    536871006
        0x080018fc:    20000066    f..     DCD    536871014
    $t
    i.RF_cmpFIFO_WhiteList
    RF_cmpFIFO_WhiteList
        0x08001900:    b5f8        ..      PUSH     {r3-r7,lr}
        0x08001902:    2500        .%      MOVS     r5,#0
        0x08001904:    0640        @.      LSLS     r0,r0,#25
        0x08001906:    d500        ..      BPL      0x800190a ; RF_cmpFIFO_WhiteList + 10
        0x08001908:    2501        .%      MOVS     r5,#1
        0x0800190a:    2400        .$      MOVS     r4,#0
        0x0800190c:    4e0c        .N      LDR      r6,[pc,#48] ; [0x8001940] = 0x20000580
        0x0800190e:    460f        .F      MOV      r7,r1
        0x08001910:    3708        .7      ADDS     r7,r7,#8
        0x08001912:    00e0        ..      LSLS     r0,r4,#3
        0x08001914:    1b00        ..      SUBS     r0,r0,r4
        0x08001916:    5c31        1\      LDRB     r1,[r6,r0]
        0x08001918:    42a9        .B      CMP      r1,r5
        0x0800191a:    d107        ..      BNE      0x800192c ; RF_cmpFIFO_WhiteList + 44
        0x0800191c:    1981        ..      ADDS     r1,r0,r6
        0x0800191e:    2206        ."      MOVS     r2,#6
        0x08001920:    4638        8F      MOV      r0,r7
        0x08001922:    1c49        I.      ADDS     r1,r1,#1
        0x08001924:    f7feff05    ....    BL       Knl_MemComp_Isr ; 0x8000732
        0x08001928:    2800        .(      CMP      r0,#0
        0x0800192a:    d003        ..      BEQ      0x8001934 ; RF_cmpFIFO_WhiteList + 52
        0x0800192c:    1c64        d.      ADDS     r4,r4,#1
        0x0800192e:    b2e4        ..      UXTB     r4,r4
        0x08001930:    2c04        .,      CMP      r4,#4
        0x08001932:    d3ee        ..      BCC      0x8001912 ; RF_cmpFIFO_WhiteList + 18
        0x08001934:    2c04        .,      CMP      r4,#4
        0x08001936:    d001        ..      BEQ      0x800193c ; RF_cmpFIFO_WhiteList + 60
        0x08001938:    2000        .       MOVS     r0,#0
        0x0800193a:    bdf8        ..      POP      {r3-r7,pc}
        0x0800193c:    2001        .       MOVS     r0,#1
        0x0800193e:    bdf8        ..      POP      {r3-r7,pc}
    $d
        0x08001940:    20000580    ...     DCD    536872320
    $t
    i.SPI_1BYT_SetRx
    SPI_1BYT_SetRx
        0x08001944:    b570        p.      PUSH     {r4-r6,lr}
        0x08001946:    4604        .F      MOV      r4,r0
        0x08001948:    b672        r.      CPSID    i
        0x0800194a:    4d10        .M      LDR      r5,[pc,#64] ; [0x800198c] = 0x40003800
        0x0800194c:    6aa9        .j      LDR      r1,[r5,#0x28]
        0x0800194e:    4628        (F      MOV      r0,r5
        0x08001950:    0849        I.      LSRS     r1,r1,#1
        0x08001952:    0049        I.      LSLS     r1,r1,#1
        0x08001954:    62a9        .b      STR      r1,[r5,#0x28]
        0x08001956:    4621        !F      MOV      r1,r4
        0x08001958:    2280        ."      MOVS     r2,#0x80
        0x0800195a:    4311        .C      ORRS     r1,r1,r2
        0x0800195c:    f000fbe0    ....    BL       SPIx_ReadWriteByte ; 0x8002120
        0x08001960:    0620         .      LSLS     r0,r4,#24
        0x08001962:    d501        ..      BPL      0x8001968 ; SPI_1BYT_SetRx + 36
        0x08001964:    2101        .!      MOVS     r1,#1
        0x08001966:    e000        ..      B        0x800196a ; SPI_1BYT_SetRx + 38
        0x08001968:    2100        .!      MOVS     r1,#0
        0x0800196a:    4628        (F      MOV      r0,r5
        0x0800196c:    f000fbd8    ....    BL       SPIx_ReadWriteByte ; 0x8002120
        0x08001970:    21ff        .!      MOVS     r1,#0xff
        0x08001972:    4628        (F      MOV      r0,r5
        0x08001974:    f000fbd4    ....    BL       SPIx_ReadWriteByte ; 0x8002120
        0x08001978:    21f5        .!      MOVS     r1,#0xf5
        0x0800197a:    4628        (F      MOV      r0,r5
        0x0800197c:    f000fbd0    ....    BL       SPIx_ReadWriteByte ; 0x8002120
        0x08001980:    6aa9        .j      LDR      r1,[r5,#0x28]
        0x08001982:    2201        ."      MOVS     r2,#1
        0x08001984:    4311        .C      ORRS     r1,r1,r2
        0x08001986:    62a9        .b      STR      r1,[r5,#0x28]
        0x08001988:    b662        b.      CPSIE    i
        0x0800198a:    bd70        p.      POP      {r4-r6,pc}
    $d
        0x0800198c:    40003800    .8.@    DCD    1073756160
    $t
    i.SPI_1BYT_SetRx_Isr
    SPI_1BYT_SetRx_Isr
        0x08001990:    b570        p.      PUSH     {r4-r6,lr}
        0x08001992:    4d13        .M      LDR      r5,[pc,#76] ; [0x80019e0] = 0x40003800
        0x08001994:    4604        .F      MOV      r4,r0
        0x08001996:    6aa9        .j      LDR      r1,[r5,#0x28]
        0x08001998:    4628        (F      MOV      r0,r5
        0x0800199a:    0849        I.      LSRS     r1,r1,#1
        0x0800199c:    0049        I.      LSLS     r1,r1,#1
        0x0800199e:    62a9        .b      STR      r1,[r5,#0x28]
        0x080019a0:    4621        !F      MOV      r1,r4
        0x080019a2:    2280        ."      MOVS     r2,#0x80
        0x080019a4:    4311        .C      ORRS     r1,r1,r2
        0x080019a6:    f000fbbb    ....    BL       SPIx_ReadWriteByte ; 0x8002120
        0x080019aa:    0620         .      LSLS     r0,r4,#24
        0x080019ac:    d501        ..      BPL      0x80019b2 ; SPI_1BYT_SetRx_Isr + 34
        0x080019ae:    2101        .!      MOVS     r1,#1
        0x080019b0:    e000        ..      B        0x80019b4 ; SPI_1BYT_SetRx_Isr + 36
        0x080019b2:    2100        .!      MOVS     r1,#0
        0x080019b4:    4628        (F      MOV      r0,r5
        0x080019b6:    f000fbb3    ....    BL       SPIx_ReadWriteByte ; 0x8002120
        0x080019ba:    2cff        .,      CMP      r4,#0xff
        0x080019bc:    d103        ..      BNE      0x80019c6 ; SPI_1BYT_SetRx_Isr + 54
        0x080019be:    21ff        .!      MOVS     r1,#0xff
        0x080019c0:    4628        (F      MOV      r0,r5
        0x080019c2:    f000fbad    ....    BL       SPIx_ReadWriteByte ; 0x8002120
        0x080019c6:    21ff        .!      MOVS     r1,#0xff
        0x080019c8:    4628        (F      MOV      r0,r5
        0x080019ca:    f000fba9    ....    BL       SPIx_ReadWriteByte ; 0x8002120
        0x080019ce:    21f5        .!      MOVS     r1,#0xf5
        0x080019d0:    4628        (F      MOV      r0,r5
        0x080019d2:    f000fba5    ....    BL       SPIx_ReadWriteByte ; 0x8002120
        0x080019d6:    6aa9        .j      LDR      r1,[r5,#0x28]
        0x080019d8:    2201        ."      MOVS     r2,#1
        0x080019da:    4311        .C      ORRS     r1,r1,r2
        0x080019dc:    62a9        .b      STR      r1,[r5,#0x28]
        0x080019de:    bd70        p.      POP      {r4-r6,pc}
    $d
        0x080019e0:    40003800    .8.@    DCD    1073756160
    $t
    i.SPI_1BYT_SetTx
    SPI_1BYT_SetTx
        0x080019e4:    b570        p.      PUSH     {r4-r6,lr}
        0x080019e6:    460d        .F      MOV      r5,r1
        0x080019e8:    4604        .F      MOV      r4,r0
        0x080019ea:    b672        r.      CPSID    i
        0x080019ec:    4e0e        .N      LDR      r6,[pc,#56] ; [0x8001a28] = 0x40003800
        0x080019ee:    6ab1        .j      LDR      r1,[r6,#0x28]
        0x080019f0:    4630        0F      MOV      r0,r6
        0x080019f2:    0849        I.      LSRS     r1,r1,#1
        0x080019f4:    0049        I.      LSLS     r1,r1,#1
        0x080019f6:    62b1        .b      STR      r1,[r6,#0x28]
        0x080019f8:    0661        a.      LSLS     r1,r4,#25
        0x080019fa:    0e49        I.      LSRS     r1,r1,#25
        0x080019fc:    f000fb90    ....    BL       SPIx_ReadWriteByte ; 0x8002120
        0x08001a00:    0620         .      LSLS     r0,r4,#24
        0x08001a02:    d501        ..      BPL      0x8001a08 ; SPI_1BYT_SetTx + 36
        0x08001a04:    2101        .!      MOVS     r1,#1
        0x08001a06:    e000        ..      B        0x8001a0a ; SPI_1BYT_SetTx + 38
        0x08001a08:    2100        .!      MOVS     r1,#0
        0x08001a0a:    4630        0F      MOV      r0,r6
        0x08001a0c:    f000fb88    ....    BL       SPIx_ReadWriteByte ; 0x8002120
        0x08001a10:    4629        )F      MOV      r1,r5
        0x08001a12:    4634        4F      MOV      r4,r6
        0x08001a14:    4630        0F      MOV      r0,r6
        0x08001a16:    f000fb83    ....    BL       SPIx_ReadWriteByte ; 0x8002120
        0x08001a1a:    6aa1        .j      LDR      r1,[r4,#0x28]
        0x08001a1c:    2201        ."      MOVS     r2,#1
        0x08001a1e:    4311        .C      ORRS     r1,r1,r2
        0x08001a20:    62a1        .b      STR      r1,[r4,#0x28]
        0x08001a22:    b662        b.      CPSIE    i
        0x08001a24:    bd70        p.      POP      {r4-r6,pc}
    $d
        0x08001a26:    0000        ..      DCW    0
        0x08001a28:    40003800    .8.@    DCD    1073756160
    $t
    i.SPI_1BYT_SetTx_Isr
    SPI_1BYT_SetTx_Isr
        0x08001a2c:    b570        p.      PUSH     {r4-r6,lr}
        0x08001a2e:    4e0f        .N      LDR      r6,[pc,#60] ; [0x8001a6c] = 0x40003800
        0x08001a30:    460d        .F      MOV      r5,r1
        0x08001a32:    4604        .F      MOV      r4,r0
        0x08001a34:    6ab1        .j      LDR      r1,[r6,#0x28]
        0x08001a36:    4630        0F      MOV      r0,r6
        0x08001a38:    0849        I.      LSRS     r1,r1,#1
        0x08001a3a:    0049        I.      LSLS     r1,r1,#1
        0x08001a3c:    62b1        .b      STR      r1,[r6,#0x28]
        0x08001a3e:    0661        a.      LSLS     r1,r4,#25
        0x08001a40:    0e49        I.      LSRS     r1,r1,#25
        0x08001a42:    f000fb6d    ..m.    BL       SPIx_ReadWriteByte ; 0x8002120
        0x08001a46:    0620         .      LSLS     r0,r4,#24
        0x08001a48:    d501        ..      BPL      0x8001a4e ; SPI_1BYT_SetTx_Isr + 34
        0x08001a4a:    2101        .!      MOVS     r1,#1
        0x08001a4c:    e000        ..      B        0x8001a50 ; SPI_1BYT_SetTx_Isr + 36
        0x08001a4e:    2100        .!      MOVS     r1,#0
        0x08001a50:    4630        0F      MOV      r0,r6
        0x08001a52:    f000fb65    ..e.    BL       SPIx_ReadWriteByte ; 0x8002120
        0x08001a56:    4629        )F      MOV      r1,r5
        0x08001a58:    4634        4F      MOV      r4,r6
        0x08001a5a:    4630        0F      MOV      r0,r6
        0x08001a5c:    f000fb60    ..`.    BL       SPIx_ReadWriteByte ; 0x8002120
        0x08001a60:    6aa1        .j      LDR      r1,[r4,#0x28]
        0x08001a62:    2201        ."      MOVS     r2,#1
        0x08001a64:    4311        .C      ORRS     r1,r1,r2
        0x08001a66:    62a1        .b      STR      r1,[r4,#0x28]
        0x08001a68:    bd70        p.      POP      {r4-r6,pc}
    $d
        0x08001a6a:    0000        ..      DCW    0
        0x08001a6c:    40003800    .8.@    DCD    1073756160
    $t
    i.SPI_2BYT_SetTx_Isr
    SPI_2BYT_SetTx_Isr
        0x08001a70:    b570        p.      PUSH     {r4-r6,lr}
        0x08001a72:    4d17        .M      LDR      r5,[pc,#92] ; [0x8001ad0] = 0x40003800
        0x08001a74:    460e        .F      MOV      r6,r1
        0x08001a76:    4604        .F      MOV      r4,r0
        0x08001a78:    6aa9        .j      LDR      r1,[r5,#0x28]
        0x08001a7a:    4628        (F      MOV      r0,r5
        0x08001a7c:    0849        I.      LSRS     r1,r1,#1
        0x08001a7e:    0049        I.      LSLS     r1,r1,#1
        0x08001a80:    62a9        .b      STR      r1,[r5,#0x28]
        0x08001a82:    0661        a.      LSLS     r1,r4,#25
        0x08001a84:    0e49        I.      LSRS     r1,r1,#25
        0x08001a86:    f000fb4b    ..K.    BL       SPIx_ReadWriteByte ; 0x8002120
        0x08001a8a:    0620         .      LSLS     r0,r4,#24
        0x08001a8c:    d501        ..      BPL      0x8001a92 ; SPI_2BYT_SetTx_Isr + 34
        0x08001a8e:    2101        .!      MOVS     r1,#1
        0x08001a90:    e000        ..      B        0x8001a94 ; SPI_2BYT_SetTx_Isr + 36
        0x08001a92:    2100        .!      MOVS     r1,#0
        0x08001a94:    4628        (F      MOV      r0,r5
        0x08001a96:    f000fb43    ..C.    BL       SPIx_ReadWriteByte ; 0x8002120
        0x08001a9a:    2cfe        .,      CMP      r4,#0xfe
        0x08001a9c:    d10b        ..      BNE      0x8001ab6 ; SPI_2BYT_SetTx_Isr + 70
        0x08001a9e:    f7fefcad    ....    BL       BleTxFIFOAddr_Get ; 0x80003fc
        0x08001aa2:    4604        .F      MOV      r4,r0
        0x08001aa4:    b2c1        ..      UXTB     r1,r0
        0x08001aa6:    4628        (F      MOV      r0,r5
        0x08001aa8:    f000fb3a    ..:.    BL       SPIx_ReadWriteByte ; 0x8002120
        0x08001aac:    05e0        ..      LSLS     r0,r4,#23
        0x08001aae:    0fc1        ..      LSRS     r1,r0,#31
        0x08001ab0:    4628        (F      MOV      r0,r5
        0x08001ab2:    f000fb35    ..5.    BL       SPIx_ReadWriteByte ; 0x8002120
        0x08001ab6:    7831        1x      LDRB     r1,[r6,#0]
        0x08001ab8:    4628        (F      MOV      r0,r5
        0x08001aba:    f000fb31    ..1.    BL       SPIx_ReadWriteByte ; 0x8002120
        0x08001abe:    7871        qx      LDRB     r1,[r6,#1]
        0x08001ac0:    4628        (F      MOV      r0,r5
        0x08001ac2:    f000fb2d    ..-.    BL       SPIx_ReadWriteByte ; 0x8002120
        0x08001ac6:    6aa8        .j      LDR      r0,[r5,#0x28]
        0x08001ac8:    2101        .!      MOVS     r1,#1
        0x08001aca:    4308        .C      ORRS     r0,r0,r1
        0x08001acc:    62a8        .b      STR      r0,[r5,#0x28]
        0x08001ace:    bd70        p.      POP      {r4-r6,pc}
    $d
        0x08001ad0:    40003800    .8.@    DCD    1073756160
    $t
    i.SPI_BiDirectionalLineConfig
    SPI_BiDirectionalLineConfig
        0x08001ad4:    2310        .#      MOVS     r3,#0x10
        0x08001ad6:    2900        .)      CMP      r1,#0
        0x08001ad8:    d00a        ..      BEQ      0x8001af0 ; SPI_BiDirectionalLineConfig + 28
        0x08001ada:    2208        ."      MOVS     r2,#8
        0x08001adc:    2901        .)      CMP      r1,#1
        0x08001ade:    d00a        ..      BEQ      0x8001af6 ; SPI_BiDirectionalLineConfig + 34
        0x08001ae0:    2902        .)      CMP      r1,#2
        0x08001ae2:    d00b        ..      BEQ      0x8001afc ; SPI_BiDirectionalLineConfig + 40
        0x08001ae4:    2903        .)      CMP      r1,#3
        0x08001ae6:    d102        ..      BNE      0x8001aee ; SPI_BiDirectionalLineConfig + 26
        0x08001ae8:    6981        .i      LDR      r1,[r0,#0x18]
        0x08001aea:    4391        .C      BICS     r1,r1,r2
        0x08001aec:    6181        .a      STR      r1,[r0,#0x18]
        0x08001aee:    4770        pG      BX       lr
        0x08001af0:    6981        .i      LDR      r1,[r0,#0x18]
        0x08001af2:    4319        .C      ORRS     r1,r1,r3
        0x08001af4:    e7fa        ..      B        0x8001aec ; SPI_BiDirectionalLineConfig + 24
        0x08001af6:    6981        .i      LDR      r1,[r0,#0x18]
        0x08001af8:    4311        .C      ORRS     r1,r1,r2
        0x08001afa:    e7f7        ..      B        0x8001aec ; SPI_BiDirectionalLineConfig + 24
        0x08001afc:    6981        .i      LDR      r1,[r0,#0x18]
        0x08001afe:    4399        .C      BICS     r1,r1,r3
        0x08001b00:    e7f4        ..      B        0x8001aec ; SPI_BiDirectionalLineConfig + 24
    i.SPI_CSInternalSelected
    SPI_CSInternalSelected
        0x08001b02:    2900        .)      CMP      r1,#0
        0x08001b04:    6a81        .j      LDR      r1,[r0,#0x28]
        0x08001b06:    d002        ..      BEQ      0x8001b0e ; SPI_CSInternalSelected + 12
        0x08001b08:    0849        I.      LSRS     r1,r1,#1
        0x08001b0a:    0049        I.      LSLS     r1,r1,#1
        0x08001b0c:    e001        ..      B        0x8001b12 ; SPI_CSInternalSelected + 16
        0x08001b0e:    2201        ."      MOVS     r2,#1
        0x08001b10:    4311        .C      ORRS     r1,r1,r2
        0x08001b12:    6281        .b      STR      r1,[r0,#0x28]
        0x08001b14:    4770        pG      BX       lr
    i.SPI_Cmd
    SPI_Cmd
        0x08001b16:    2900        .)      CMP      r1,#0
        0x08001b18:    6981        .i      LDR      r1,[r0,#0x18]
        0x08001b1a:    d002        ..      BEQ      0x8001b22 ; SPI_Cmd + 12
        0x08001b1c:    2201        ."      MOVS     r2,#1
        0x08001b1e:    4311        .C      ORRS     r1,r1,r2
        0x08001b20:    e001        ..      B        0x8001b26 ; SPI_Cmd + 16
        0x08001b22:    0849        I.      LSRS     r1,r1,#1
        0x08001b24:    0049        I.      LSLS     r1,r1,#1
        0x08001b26:    6181        .a      STR      r1,[r0,#0x18]
        0x08001b28:    4770        pG      BX       lr
    i.SPI_DMACmd
    SPI_DMACmd
        0x08001b2a:    2201        ."      MOVS     r2,#1
        0x08001b2c:    0252        R.      LSLS     r2,r2,#9
        0x08001b2e:    2900        .)      CMP      r1,#0
        0x08001b30:    6981        .i      LDR      r1,[r0,#0x18]
        0x08001b32:    d001        ..      BEQ      0x8001b38 ; SPI_DMACmd + 14
        0x08001b34:    4311        .C      ORRS     r1,r1,r2
        0x08001b36:    e000        ..      B        0x8001b3a ; SPI_DMACmd + 16
        0x08001b38:    4391        .C      BICS     r1,r1,r2
        0x08001b3a:    6181        .a      STR      r1,[r0,#0x18]
        0x08001b3c:    4770        pG      BX       lr
        0x08001b3e:    0000        ..      MOVS     r0,r0
    i.SPI_GPIO_Init
    SPI_GPIO_Init
        0x08001b40:    b538        8.      PUSH     {r3-r5,lr}
        0x08001b42:    2101        .!      MOVS     r1,#1
        0x08001b44:    0488        ..      LSLS     r0,r1,#18
        0x08001b46:    f7fffb31    ..1.    BL       RCC_AHBPeriphClockCmd ; 0x80011ac
        0x08001b4a:    4668        hF      MOV      r0,sp
        0x08001b4c:    f7fefde0    ....    BL       GPIO_StructInit ; 0x8000710
        0x08001b50:    20f1        .       MOVS     r0,#0xf1
        0x08001b52:    0200        ..      LSLS     r0,r0,#8
        0x08001b54:    4669        iF      MOV      r1,sp
        0x08001b56:    8008        ..      STRH     r0,[r1,#0]
        0x08001b58:    2001        .       MOVS     r0,#1
        0x08001b5a:    7088        .p      STRB     r0,[r1,#2]
        0x08001b5c:    2010        .       MOVS     r0,#0x10
        0x08001b5e:    4c05        .L      LDR      r4,[pc,#20] ; [0x8001b74] = 0x48000400
        0x08001b60:    70c8        .p      STRB     r0,[r1,#3]
        0x08001b62:    4620         F      MOV      r0,r4
        0x08001b64:    f7fefd78    ..x.    BL       GPIO_Init ; 0x8000658
        0x08001b68:    4669        iF      MOV      r1,sp
        0x08001b6a:    4620         F      MOV      r0,r4
        0x08001b6c:    f7fefd74    ..t.    BL       GPIO_Init ; 0x8000658
        0x08001b70:    bd38        8.      POP      {r3-r5,pc}
    $d
        0x08001b72:    0000        ..      DCW    0
        0x08001b74:    48000400    ...H    DCD    1207960576
    $t
    i.SPI_Init
    SPI_Init
        0x08001b78:    b530        0.      PUSH     {r4,r5,lr}
        0x08001b7a:    790b        .y      LDRB     r3,[r1,#4]
        0x08001b7c:    2401        .$      MOVS     r4,#1
        0x08001b7e:    02a4        ..      LSLS     r4,r4,#10
        0x08001b80:    2204        ."      MOVS     r2,#4
        0x08001b82:    2b20         +      CMP      r3,#0x20
        0x08001b84:    d103        ..      BNE      0x8001b8e ; SPI_Init + 22
        0x08001b86:    6983        .i      LDR      r3,[r0,#0x18]
        0x08001b88:    0255        U.      LSLS     r5,r2,#9
        0x08001b8a:    432b        +C      ORRS     r3,r3,r5
        0x08001b8c:    6183        .a      STR      r3,[r0,#0x18]
        0x08001b8e:    6983        .i      LDR      r3,[r0,#0x18]
        0x08001b90:    43a3        .C      BICS     r3,r3,r4
        0x08001b92:    890c        ..      LDRH     r4,[r1,#8]
        0x08001b94:    4323        #C      ORRS     r3,r3,r4
        0x08001b96:    6183        .a      STR      r3,[r0,#0x18]
        0x08001b98:    6983        .i      LDR      r3,[r0,#0x18]
        0x08001b9a:    780c        .x      LDRB     r4,[r1,#0]
        0x08001b9c:    4393        .C      BICS     r3,r3,r2
        0x08001b9e:    4323        #C      ORRS     r3,r3,r4
        0x08001ba0:    6183        .a      STR      r3,[r0,#0x18]
        0x08001ba2:    69c3        .i      LDR      r3,[r0,#0x1c]
        0x08001ba4:    4393        .C      BICS     r3,r3,r2
        0x08001ba6:    7b0a        .{      LDRB     r2,[r1,#0xc]
        0x08001ba8:    4313        .C      ORRS     r3,r3,r2
        0x08001baa:    61c3        .a      STR      r3,[r0,#0x1c]
        0x08001bac:    69c2        .i      LDR      r2,[r0,#0x1c]
        0x08001bae:    2302        .#      MOVS     r3,#2
        0x08001bb0:    439a        .C      BICS     r2,r2,r3
        0x08001bb2:    794b        Ky      LDRB     r3,[r1,#5]
        0x08001bb4:    431a        .C      ORRS     r2,r2,r3
        0x08001bb6:    61c2        .a      STR      r2,[r0,#0x1c]
        0x08001bb8:    69c2        .i      LDR      r2,[r0,#0x1c]
        0x08001bba:    798b        .y      LDRB     r3,[r1,#6]
        0x08001bbc:    0852        R.      LSRS     r2,r2,#1
        0x08001bbe:    0052        R.      LSLS     r2,r2,#1
        0x08001bc0:    431a        .C      ORRS     r2,r2,r3
        0x08001bc2:    61c2        .a      STR      r2,[r0,#0x1c]
        0x08001bc4:    69c2        .i      LDR      r2,[r0,#0x1c]
        0x08001bc6:    2308        .#      MOVS     r3,#8
        0x08001bc8:    431a        .C      ORRS     r2,r2,r3
        0x08001bca:    61c2        .a      STR      r2,[r0,#0x1c]
        0x08001bcc:    6a02        .j      LDR      r2,[r0,#0x20]
        0x08001bce:    894b        K.      LDRH     r3,[r1,#0xa]
        0x08001bd0:    0c12        ..      LSRS     r2,r2,#16
        0x08001bd2:    0412        ..      LSLS     r2,r2,#16
        0x08001bd4:    431a        .C      ORRS     r2,r2,r3
        0x08001bd6:    6202        .b      STR      r2,[r0,#0x20]
        0x08001bd8:    6ac2        .j      LDR      r2,[r0,#0x2c]
        0x08001bda:    7909        .y      LDRB     r1,[r1,#4]
        0x08001bdc:    0952        R.      LSRS     r2,r2,#5
        0x08001bde:    0152        R.      LSLS     r2,r2,#5
        0x08001be0:    430a        .C      ORRS     r2,r2,r1
        0x08001be2:    62c2        .b      STR      r2,[r0,#0x2c]
        0x08001be4:    bd30        0.      POP      {r4,r5,pc}
        0x08001be6:    0000        ..      MOVS     r0,r0
    i.SPI_PDMA_SetRx_Isr
    SPI_PDMA_SetRx_Isr
        0x08001be8:    b5f8        ..      PUSH     {r3-r7,lr}
        0x08001bea:    4d15        .M      LDR      r5,[pc,#84] ; [0x8001c40] = 0x40003800
        0x08001bec:    460f        .F      MOV      r7,r1
        0x08001bee:    4604        .F      MOV      r4,r0
        0x08001bf0:    6aa9        .j      LDR      r1,[r5,#0x28]
        0x08001bf2:    4616        .F      MOV      r6,r2
        0x08001bf4:    4628        (F      MOV      r0,r5
        0x08001bf6:    0849        I.      LSRS     r1,r1,#1
        0x08001bf8:    0049        I.      LSLS     r1,r1,#1
        0x08001bfa:    62a9        .b      STR      r1,[r5,#0x28]
        0x08001bfc:    4621        !F      MOV      r1,r4
        0x08001bfe:    2280        ."      MOVS     r2,#0x80
        0x08001c00:    4311        .C      ORRS     r1,r1,r2
        0x08001c02:    f000fa8d    ....    BL       SPIx_ReadWriteByte ; 0x8002120
        0x08001c06:    0620         .      LSLS     r0,r4,#24
        0x08001c08:    d501        ..      BPL      0x8001c0e ; SPI_PDMA_SetRx_Isr + 38
        0x08001c0a:    2101        .!      MOVS     r1,#1
        0x08001c0c:    e000        ..      B        0x8001c10 ; SPI_PDMA_SetRx_Isr + 40
        0x08001c0e:    2100        .!      MOVS     r1,#0
        0x08001c10:    4628        (F      MOV      r0,r5
        0x08001c12:    f000fa85    ....    BL       SPIx_ReadWriteByte ; 0x8002120
        0x08001c16:    2cff        .,      CMP      r4,#0xff
        0x08001c18:    d103        ..      BNE      0x8001c22 ; SPI_PDMA_SetRx_Isr + 58
        0x08001c1a:    21ff        .!      MOVS     r1,#0xff
        0x08001c1c:    4628        (F      MOV      r0,r5
        0x08001c1e:    f000fa7f    ....    BL       SPIx_ReadWriteByte ; 0x8002120
        0x08001c22:    21ff        .!      MOVS     r1,#0xff
        0x08001c24:    4628        (F      MOV      r0,r5
        0x08001c26:    f000fa7b    ..{.    BL       SPIx_ReadWriteByte ; 0x8002120
        0x08001c2a:    1e72        r.      SUBS     r2,r6,#1
        0x08001c2c:    4639        9F      MOV      r1,r7
        0x08001c2e:    4628        (F      MOV      r0,r5
        0x08001c30:    f000f9a4    ....    BL       SPIx_DMA_RxData ; 0x8001f7c
        0x08001c34:    6aa9        .j      LDR      r1,[r5,#0x28]
        0x08001c36:    2201        ."      MOVS     r2,#1
        0x08001c38:    4311        .C      ORRS     r1,r1,r2
        0x08001c3a:    62a9        .b      STR      r1,[r5,#0x28]
        0x08001c3c:    bdf8        ..      POP      {r3-r7,pc}
    $d
        0x08001c3e:    0000        ..      DCW    0
        0x08001c40:    40003800    .8.@    DCD    1073756160
    $t
    i.SPI_PDMA_SetTx
    SPI_PDMA_SetTx
        0x08001c44:    b5f8        ..      PUSH     {r3-r7,lr}
        0x08001c46:    4d17        .M      LDR      r5,[pc,#92] ; [0x8001ca4] = 0x40003800
        0x08001c48:    460f        .F      MOV      r7,r1
        0x08001c4a:    4604        .F      MOV      r4,r0
        0x08001c4c:    6aa9        .j      LDR      r1,[r5,#0x28]
        0x08001c4e:    4616        .F      MOV      r6,r2
        0x08001c50:    4628        (F      MOV      r0,r5
        0x08001c52:    0849        I.      LSRS     r1,r1,#1
        0x08001c54:    0049        I.      LSLS     r1,r1,#1
        0x08001c56:    62a9        .b      STR      r1,[r5,#0x28]
        0x08001c58:    0661        a.      LSLS     r1,r4,#25
        0x08001c5a:    0e49        I.      LSRS     r1,r1,#25
        0x08001c5c:    f000fa60    ..`.    BL       SPIx_ReadWriteByte ; 0x8002120
        0x08001c60:    0620         .      LSLS     r0,r4,#24
        0x08001c62:    d501        ..      BPL      0x8001c68 ; SPI_PDMA_SetTx + 36
        0x08001c64:    2101        .!      MOVS     r1,#1
        0x08001c66:    e000        ..      B        0x8001c6a ; SPI_PDMA_SetTx + 38
        0x08001c68:    2100        .!      MOVS     r1,#0
        0x08001c6a:    4628        (F      MOV      r0,r5
        0x08001c6c:    f000fa58    ..X.    BL       SPIx_ReadWriteByte ; 0x8002120
        0x08001c70:    2cfe        .,      CMP      r4,#0xfe
        0x08001c72:    d10c        ..      BNE      0x8001c8e ; SPI_PDMA_SetTx + 74
        0x08001c74:    f7fefbc2    ....    BL       BleTxFIFOAddr_Get ; 0x80003fc
        0x08001c78:    4604        .F      MOV      r4,r0
        0x08001c7a:    b2c1        ..      UXTB     r1,r0
        0x08001c7c:    4628        (F      MOV      r0,r5
        0x08001c7e:    f000fa4f    ..O.    BL       SPIx_ReadWriteByte ; 0x8002120
        0x08001c82:    05e0        ..      LSLS     r0,r4,#23
        0x08001c84:    0fc1        ..      LSRS     r1,r0,#31
        0x08001c86:    4628        (F      MOV      r0,r5
        0x08001c88:    3180        .1      ADDS     r1,r1,#0x80
        0x08001c8a:    f000fa49    ..I.    BL       SPIx_ReadWriteByte ; 0x8002120
        0x08001c8e:    1e72        r.      SUBS     r2,r6,#1
        0x08001c90:    4639        9F      MOV      r1,r7
        0x08001c92:    4628        (F      MOV      r0,r5
        0x08001c94:    f000f9de    ....    BL       SPIx_DMA_TxData ; 0x8002054
        0x08001c98:    6aa9        .j      LDR      r1,[r5,#0x28]
        0x08001c9a:    2201        ."      MOVS     r2,#1
        0x08001c9c:    4311        .C      ORRS     r1,r1,r2
        0x08001c9e:    62a9        .b      STR      r1,[r5,#0x28]
        0x08001ca0:    bdf8        ..      POP      {r3-r7,pc}
    $d
        0x08001ca2:    0000        ..      DCW    0
        0x08001ca4:    40003800    .8.@    DCD    1073756160
    $t
    i.SPI_PDMA_waitFinish
    SPI_PDMA_waitFinish
        0x08001ca8:    2000        .       MOVS     r0,#0
        0x08001caa:    4770        pG      BX       lr
    i.SPI_StructInit
    SPI_StructInit
        0x08001cac:    2100        .!      MOVS     r1,#0
        0x08001cae:    7001        .p      STRB     r1,[r0,#0]
        0x08001cb0:    8041        A.      STRH     r1,[r0,#2]
        0x08001cb2:    2208        ."      MOVS     r2,#8
        0x08001cb4:    7102        .q      STRB     r2,[r0,#4]
        0x08001cb6:    7141        Aq      STRB     r1,[r0,#5]
        0x08001cb8:    2201        ."      MOVS     r2,#1
        0x08001cba:    7182        .q      STRB     r2,[r0,#6]
        0x08001cbc:    8101        ..      STRH     r1,[r0,#8]
        0x08001cbe:    2202        ."      MOVS     r2,#2
        0x08001cc0:    8142        B.      STRH     r2,[r0,#0xa]
        0x08001cc2:    7301        .s      STRB     r1,[r0,#0xc]
        0x08001cc4:    4770        pG      BX       lr
        0x08001cc6:    0000        ..      MOVS     r0,r0
    i.SPIx_Configure
    SPIx_Configure
        0x08001cc8:    b5f0        ..      PUSH     {r4-r7,lr}
        0x08001cca:    4f55        UO      LDR      r7,[pc,#340] ; [0x8001e20] = 0x40013000
        0x08001ccc:    2400        .$      MOVS     r4,#0
        0x08001cce:    2501        .%      MOVS     r5,#1
        0x08001cd0:    2604        .&      MOVS     r6,#4
        0x08001cd2:    b085        ..      SUB      sp,sp,#0x14
        0x08001cd4:    42b8        .B      CMP      r0,r7
        0x08001cd6:    d14d        M.      BNE      0x8001d74 ; SPIx_Configure + 172
        0x08001cd8:    2101        .!      MOVS     r1,#1
        0x08001cda:    1480        ..      ASRS     r0,r0,#18
        0x08001cdc:    f7fffa7e    ..~.    BL       RCC_APB2PeriphClockCmd ; 0x80011dc
        0x08001ce0:    4668        hF      MOV      r0,sp
        0x08001ce2:    f7ffffe3    ....    BL       SPI_StructInit ; 0x8001cac
        0x08001ce6:    4669        iF      MOV      r1,sp
        0x08001ce8:    700e        .p      STRB     r6,[r1,#0]
        0x08001cea:    804c        L.      STRH     r4,[r1,#2]
        0x08001cec:    2008        .       MOVS     r0,#8
        0x08001cee:    7108        .q      STRB     r0,[r1,#4]
        0x08001cf0:    714c        Lq      STRB     r4,[r1,#5]
        0x08001cf2:    718d        .q      STRB     r5,[r1,#6]
        0x08001cf4:    810c        ..      STRH     r4,[r1,#8]
        0x08001cf6:    2002        .       MOVS     r0,#2
        0x08001cf8:    8148        H.      STRH     r0,[r1,#0xa]
        0x08001cfa:    730c        .s      STRB     r4,[r1,#0xc]
        0x08001cfc:    4638        8F      MOV      r0,r7
        0x08001cfe:    f7ffff3b    ..;.    BL       SPI_Init ; 0x8001b78
        0x08001d02:    2101        .!      MOVS     r1,#1
        0x08001d04:    4638        8F      MOV      r0,r7
        0x08001d06:    f7ffff06    ....    BL       SPI_Cmd ; 0x8001b16
        0x08001d0a:    2101        .!      MOVS     r1,#1
        0x08001d0c:    0448        H.      LSLS     r0,r1,#17
        0x08001d0e:    f7fffa4d    ..M.    BL       RCC_AHBPeriphClockCmd ; 0x80011ac
        0x08001d12:    2101        .!      MOVS     r1,#1
        0x08001d14:    4608        .F      MOV      r0,r1
        0x08001d16:    f7fffa61    ..a.    BL       RCC_APB2PeriphClockCmd ; 0x80011dc
        0x08001d1a:    2409        .$      MOVS     r4,#9
        0x08001d1c:    06e4        ..      LSLS     r4,r4,#27
        0x08001d1e:    2200        ."      MOVS     r2,#0
        0x08001d20:    2104        .!      MOVS     r1,#4
        0x08001d22:    4620         F      MOV      r0,r4
        0x08001d24:    f7fefcdb    ....    BL       GPIO_PinAFConfig ; 0x80006de
        0x08001d28:    2200        ."      MOVS     r2,#0
        0x08001d2a:    2105        .!      MOVS     r1,#5
        0x08001d2c:    4620         F      MOV      r0,r4
        0x08001d2e:    f7fefcd6    ....    BL       GPIO_PinAFConfig ; 0x80006de
        0x08001d32:    2200        ."      MOVS     r2,#0
        0x08001d34:    2106        .!      MOVS     r1,#6
        0x08001d36:    4620         F      MOV      r0,r4
        0x08001d38:    f7fefcd1    ....    BL       GPIO_PinAFConfig ; 0x80006de
        0x08001d3c:    2200        ."      MOVS     r2,#0
        0x08001d3e:    2107        .!      MOVS     r1,#7
        0x08001d40:    4620         F      MOV      r0,r4
        0x08001d42:    f7fefccc    ....    BL       GPIO_PinAFConfig ; 0x80006de
        0x08001d46:    a804        ..      ADD      r0,sp,#0x10
        0x08001d48:    f7fefce2    ....    BL       GPIO_StructInit ; 0x8000710
        0x08001d4c:    20b0        .       MOVS     r0,#0xb0
        0x08001d4e:    4669        iF      MOV      r1,sp
        0x08001d50:    8208        ..      STRH     r0,[r1,#0x10]
        0x08001d52:    748d        .t      STRB     r5,[r1,#0x12]
        0x08001d54:    2018        .       MOVS     r0,#0x18
        0x08001d56:    74c8        .t      STRB     r0,[r1,#0x13]
        0x08001d58:    a904        ..      ADD      r1,sp,#0x10
        0x08001d5a:    4620         F      MOV      r0,r4
        0x08001d5c:    f7fefc7c    ..|.    BL       GPIO_Init ; 0x8000658
        0x08001d60:    a804        ..      ADD      r0,sp,#0x10
        0x08001d62:    f7fefcd5    ....    BL       GPIO_StructInit ; 0x8000710
        0x08001d66:    2040        @       MOVS     r0,#0x40
        0x08001d68:    4669        iF      MOV      r1,sp
        0x08001d6a:    8208        ..      STRH     r0,[r1,#0x10]
        0x08001d6c:    748d        .t      STRB     r5,[r1,#0x12]
        0x08001d6e:    2048        H       MOVS     r0,#0x48
        0x08001d70:    74c8        .t      STRB     r0,[r1,#0x13]
        0x08001d72:    e04e        N.      B        0x8001e12 ; SPIx_Configure + 330
        0x08001d74:    4f2b        +O      LDR      r7,[pc,#172] ; [0x8001e24] = 0x40003800
        0x08001d76:    42b8        .B      CMP      r0,r7
        0x08001d78:    d14f        O.      BNE      0x8001e1a ; SPIx_Configure + 338
        0x08001d7a:    2101        .!      MOVS     r1,#1
        0x08001d7c:    1400        ..      ASRS     r0,r0,#16
        0x08001d7e:    f7fffa21    ..!.    BL       RCC_APB1PeriphClockCmd ; 0x80011c4
        0x08001d82:    4668        hF      MOV      r0,sp
        0x08001d84:    f7ffff92    ....    BL       SPI_StructInit ; 0x8001cac
        0x08001d88:    4669        iF      MOV      r1,sp
        0x08001d8a:    700e        .p      STRB     r6,[r1,#0]
        0x08001d8c:    804c        L.      STRH     r4,[r1,#2]
        0x08001d8e:    2008        .       MOVS     r0,#8
        0x08001d90:    7108        .q      STRB     r0,[r1,#4]
        0x08001d92:    714c        Lq      STRB     r4,[r1,#5]
        0x08001d94:    718d        .q      STRB     r5,[r1,#6]
        0x08001d96:    810c        ..      STRH     r4,[r1,#8]
        0x08001d98:    2002        .       MOVS     r0,#2
        0x08001d9a:    8148        H.      STRH     r0,[r1,#0xa]
        0x08001d9c:    730c        .s      STRB     r4,[r1,#0xc]
        0x08001d9e:    4638        8F      MOV      r0,r7
        0x08001da0:    f7fffeea    ....    BL       SPI_Init ; 0x8001b78
        0x08001da4:    2101        .!      MOVS     r1,#1
        0x08001da6:    4638        8F      MOV      r0,r7
        0x08001da8:    f7fffeb5    ....    BL       SPI_Cmd ; 0x8001b16
        0x08001dac:    2101        .!      MOVS     r1,#1
        0x08001dae:    0488        ..      LSLS     r0,r1,#18
        0x08001db0:    f7fff9fc    ....    BL       RCC_AHBPeriphClockCmd ; 0x80011ac
        0x08001db4:    2101        .!      MOVS     r1,#1
        0x08001db6:    4608        .F      MOV      r0,r1
        0x08001db8:    f7fffa10    ....    BL       RCC_APB2PeriphClockCmd ; 0x80011dc
        0x08001dbc:    4c1a        .L      LDR      r4,[pc,#104] ; [0x8001e28] = 0x48000400
        0x08001dbe:    2200        ."      MOVS     r2,#0
        0x08001dc0:    210c        .!      MOVS     r1,#0xc
        0x08001dc2:    4620         F      MOV      r0,r4
        0x08001dc4:    f7fefc8b    ....    BL       GPIO_PinAFConfig ; 0x80006de
        0x08001dc8:    2200        ."      MOVS     r2,#0
        0x08001dca:    210d        .!      MOVS     r1,#0xd
        0x08001dcc:    4620         F      MOV      r0,r4
        0x08001dce:    f7fefc86    ....    BL       GPIO_PinAFConfig ; 0x80006de
        0x08001dd2:    2200        ."      MOVS     r2,#0
        0x08001dd4:    210e        .!      MOVS     r1,#0xe
        0x08001dd6:    4620         F      MOV      r0,r4
        0x08001dd8:    f7fefc81    ....    BL       GPIO_PinAFConfig ; 0x80006de
        0x08001ddc:    2200        ."      MOVS     r2,#0
        0x08001dde:    210f        .!      MOVS     r1,#0xf
        0x08001de0:    4620         F      MOV      r0,r4
        0x08001de2:    f7fefc7c    ..|.    BL       GPIO_PinAFConfig ; 0x80006de
        0x08001de6:    a804        ..      ADD      r0,sp,#0x10
        0x08001de8:    f7fefc92    ....    BL       GPIO_StructInit ; 0x8000710
        0x08001dec:    200b        .       MOVS     r0,#0xb
        0x08001dee:    0300        ..      LSLS     r0,r0,#12
        0x08001df0:    4669        iF      MOV      r1,sp
        0x08001df2:    8208        ..      STRH     r0,[r1,#0x10]
        0x08001df4:    748d        .t      STRB     r5,[r1,#0x12]
        0x08001df6:    2018        .       MOVS     r0,#0x18
        0x08001df8:    74c8        .t      STRB     r0,[r1,#0x13]
        0x08001dfa:    a904        ..      ADD      r1,sp,#0x10
        0x08001dfc:    4620         F      MOV      r0,r4
        0x08001dfe:    f7fefc2b    ..+.    BL       GPIO_Init ; 0x8000658
        0x08001e02:    a804        ..      ADD      r0,sp,#0x10
        0x08001e04:    f7fefc84    ....    BL       GPIO_StructInit ; 0x8000710
        0x08001e08:    1438        8.      ASRS     r0,r7,#16
        0x08001e0a:    4669        iF      MOV      r1,sp
        0x08001e0c:    8208        ..      STRH     r0,[r1,#0x10]
        0x08001e0e:    748d        .t      STRB     r5,[r1,#0x12]
        0x08001e10:    74ce        .t      STRB     r6,[r1,#0x13]
        0x08001e12:    a904        ..      ADD      r1,sp,#0x10
        0x08001e14:    4620         F      MOV      r0,r4
        0x08001e16:    f7fefc1f    ....    BL       GPIO_Init ; 0x8000658
        0x08001e1a:    b005        ..      ADD      sp,sp,#0x14
        0x08001e1c:    bdf0        ..      POP      {r4-r7,pc}
    $d
        0x08001e1e:    0000        ..      DCW    0
        0x08001e20:    40013000    .0.@    DCD    1073819648
        0x08001e24:    40003800    .8.@    DCD    1073756160
        0x08001e28:    48000400    ...H    DCD    1207960576
    $t
    i.SPIx_DMA_Configure
    SPIx_DMA_Configure
        0x08001e2c:    b5f0        ..      PUSH     {r4-r7,lr}
        0x08001e2e:    460e        .F      MOV      r6,r1
        0x08001e30:    4607        .F      MOV      r7,r0
        0x08001e32:    2101        .!      MOVS     r1,#1
        0x08001e34:    b089        ..      SUB      sp,sp,#0x24
        0x08001e36:    461c        .F      MOV      r4,r3
        0x08001e38:    4615        .F      MOV      r5,r2
        0x08001e3a:    4608        .F      MOV      r0,r1
        0x08001e3c:    f7fff9b6    ....    BL       RCC_AHBPeriphClockCmd ; 0x80011ac
        0x08001e40:    483f        ?H      LDR      r0,[pc,#252] ; [0x8001f40] = 0x4002001c
        0x08001e42:    4287        .B      CMP      r7,r0
        0x08001e44:    d111        ..      BNE      0x8001e6a ; SPIx_DMA_Configure + 62
        0x08001e46:    2100        .!      MOVS     r1,#0
        0x08001e48:    4607        .F      MOV      r7,r0
        0x08001e4a:    f7fefb2b    ..+.    BL       DMA_Cmd ; 0x80004a4
        0x08001e4e:    4638        8F      MOV      r0,r7
        0x08001e50:    f7fefb2e    ....    BL       DMA_DeInit ; 0x80004b0
        0x08001e54:    4668        hF      MOV      r0,sp
        0x08001e56:    f7fefb7b    ..{.    BL       DMA_StructInit ; 0x8000550
        0x08001e5a:    483a        :H      LDR      r0,[pc,#232] ; [0x8001f44] = 0x40013004
        0x08001e5c:    9000        ..      STR      r0,[sp,#0]
        0x08001e5e:    9601        ..      STR      r6,[sp,#4]
        0x08001e60:    2000        .       MOVS     r0,#0
        0x08001e62:    4669        iF      MOV      r1,sp
        0x08001e64:    7208        .r      STRB     r0,[r1,#8]
        0x08001e66:    9503        ..      STR      r5,[sp,#0xc]
        0x08001e68:    e016        ..      B        0x8001e98 ; SPIx_DMA_Configure + 108
        0x08001e6a:    4835        5H      LDR      r0,[pc,#212] ; [0x8001f40] = 0x4002001c
        0x08001e6c:    3014        .0      ADDS     r0,r0,#0x14
        0x08001e6e:    4287        .B      CMP      r7,r0
        0x08001e70:    d12a        *.      BNE      0x8001ec8 ; SPIx_DMA_Configure + 156
        0x08001e72:    2100        .!      MOVS     r1,#0
        0x08001e74:    4607        .F      MOV      r7,r0
        0x08001e76:    f7fefb15    ....    BL       DMA_Cmd ; 0x80004a4
        0x08001e7a:    4638        8F      MOV      r0,r7
        0x08001e7c:    f7fefb18    ....    BL       DMA_DeInit ; 0x80004b0
        0x08001e80:    4668        hF      MOV      r0,sp
        0x08001e82:    f7fefb65    ..e.    BL       DMA_StructInit ; 0x8000550
        0x08001e86:    482f        /H      LDR      r0,[pc,#188] ; [0x8001f44] = 0x40013004
        0x08001e88:    9601        ..      STR      r6,[sp,#4]
        0x08001e8a:    1f00        ..      SUBS     r0,r0,#4
        0x08001e8c:    9000        ..      STR      r0,[sp,#0]
        0x08001e8e:    2010        .       MOVS     r0,#0x10
        0x08001e90:    4669        iF      MOV      r1,sp
        0x08001e92:    7208        .r      STRB     r0,[r1,#8]
        0x08001e94:    2000        .       MOVS     r0,#0
        0x08001e96:    9503        ..      STR      r5,[sp,#0xc]
        0x08001e98:    7408        .t      STRB     r0,[r1,#0x10]
        0x08001e9a:    744c        Lt      STRB     r4,[r1,#0x11]
        0x08001e9c:    8248        H.      STRH     r0,[r1,#0x12]
        0x08001e9e:    8288        ..      STRH     r0,[r1,#0x14]
        0x08001ea0:    2203        ."      MOVS     r2,#3
        0x08001ea2:    7588        .u      STRB     r0,[r1,#0x16]
        0x08001ea4:    0312        ..      LSLS     r2,r2,#12
        0x08001ea6:    830a        ..      STRH     r2,[r1,#0x18]
        0x08001ea8:    8348        H.      STRH     r0,[r1,#0x1a]
        0x08001eaa:    8388        ..      STRH     r0,[r1,#0x1c]
        0x08001eac:    4638        8F      MOV      r0,r7
        0x08001eae:    f7fefb29    ..).    BL       DMA_Init ; 0x8000504
        0x08001eb2:    2201        ."      MOVS     r2,#1
        0x08001eb4:    2102        .!      MOVS     r1,#2
        0x08001eb6:    4638        8F      MOV      r0,r7
        0x08001eb8:    f7fefb1c    ....    BL       DMA_ITConfig ; 0x80004f4
        0x08001ebc:    2101        .!      MOVS     r1,#1
        0x08001ebe:    4638        8F      MOV      r0,r7
        0x08001ec0:    f7fefaf0    ....    BL       DMA_Cmd ; 0x80004a4
        0x08001ec4:    b009        ..      ADD      sp,sp,#0x24
        0x08001ec6:    bdf0        ..      POP      {r4-r7,pc}
        0x08001ec8:    481d        .H      LDR      r0,[pc,#116] ; [0x8001f40] = 0x4002001c
        0x08001eca:    3028        (0      ADDS     r0,r0,#0x28
        0x08001ecc:    4287        .B      CMP      r7,r0
        0x08001ece:    d111        ..      BNE      0x8001ef4 ; SPIx_DMA_Configure + 200
        0x08001ed0:    2100        .!      MOVS     r1,#0
        0x08001ed2:    4607        .F      MOV      r7,r0
        0x08001ed4:    f7fefae6    ....    BL       DMA_Cmd ; 0x80004a4
        0x08001ed8:    4638        8F      MOV      r0,r7
        0x08001eda:    f7fefae9    ....    BL       DMA_DeInit ; 0x80004b0
        0x08001ede:    4668        hF      MOV      r0,sp
        0x08001ee0:    f7fefb36    ..6.    BL       DMA_StructInit ; 0x8000550
        0x08001ee4:    4818        .H      LDR      r0,[pc,#96] ; [0x8001f48] = 0x40003804
        0x08001ee6:    9000        ..      STR      r0,[sp,#0]
        0x08001ee8:    9601        ..      STR      r6,[sp,#4]
        0x08001eea:    2000        .       MOVS     r0,#0
        0x08001eec:    4669        iF      MOV      r1,sp
        0x08001eee:    7208        .r      STRB     r0,[r1,#8]
        0x08001ef0:    9503        ..      STR      r5,[sp,#0xc]
        0x08001ef2:    e016        ..      B        0x8001f22 ; SPIx_DMA_Configure + 246
        0x08001ef4:    4812        .H      LDR      r0,[pc,#72] ; [0x8001f40] = 0x4002001c
        0x08001ef6:    303c        <0      ADDS     r0,r0,#0x3c
        0x08001ef8:    4287        .B      CMP      r7,r0
        0x08001efa:    d1e3        ..      BNE      0x8001ec4 ; SPIx_DMA_Configure + 152
        0x08001efc:    2100        .!      MOVS     r1,#0
        0x08001efe:    4607        .F      MOV      r7,r0
        0x08001f00:    f7fefad0    ....    BL       DMA_Cmd ; 0x80004a4
        0x08001f04:    4638        8F      MOV      r0,r7
        0x08001f06:    f7fefad3    ....    BL       DMA_DeInit ; 0x80004b0
        0x08001f0a:    4668        hF      MOV      r0,sp
        0x08001f0c:    f7fefb20    .. .    BL       DMA_StructInit ; 0x8000550
        0x08001f10:    480d        .H      LDR      r0,[pc,#52] ; [0x8001f48] = 0x40003804
        0x08001f12:    9601        ..      STR      r6,[sp,#4]
        0x08001f14:    1f00        ..      SUBS     r0,r0,#4
        0x08001f16:    9000        ..      STR      r0,[sp,#0]
        0x08001f18:    2010        .       MOVS     r0,#0x10
        0x08001f1a:    4669        iF      MOV      r1,sp
        0x08001f1c:    7208        .r      STRB     r0,[r1,#8]
        0x08001f1e:    2000        .       MOVS     r0,#0
        0x08001f20:    9503        ..      STR      r5,[sp,#0xc]
        0x08001f22:    7408        .t      STRB     r0,[r1,#0x10]
        0x08001f24:    744c        Lt      STRB     r4,[r1,#0x11]
        0x08001f26:    8248        H.      STRH     r0,[r1,#0x12]
        0x08001f28:    8288        ..      STRH     r0,[r1,#0x14]
        0x08001f2a:    2203        ."      MOVS     r2,#3
        0x08001f2c:    7588        .u      STRB     r0,[r1,#0x16]
        0x08001f2e:    0312        ..      LSLS     r2,r2,#12
        0x08001f30:    830a        ..      STRH     r2,[r1,#0x18]
        0x08001f32:    8348        H.      STRH     r0,[r1,#0x1a]
        0x08001f34:    8388        ..      STRH     r0,[r1,#0x1c]
        0x08001f36:    4638        8F      MOV      r0,r7
        0x08001f38:    f7fefae4    ....    BL       DMA_Init ; 0x8000504
        0x08001f3c:    e7c2        ..      B        0x8001ec4 ; SPIx_DMA_Configure + 152
    $d
        0x08001f3e:    0000        ..      DCW    0
        0x08001f40:    4002001c    ...@    DCD    1073872924
        0x08001f44:    40013004    .0.@    DCD    1073819652
        0x08001f48:    40003804    .8.@    DCD    1073756164
    $t
    i.SPIx_DMA_InterruptConfigure
    SPIx_DMA_InterruptConfigure
        0x08001f4c:    b508        ..      PUSH     {r3,lr}
        0x08001f4e:    4b09        .K      LDR      r3,[pc,#36] ; [0x8001f74] = 0x40013000
        0x08001f50:    2202        ."      MOVS     r2,#2
        0x08001f52:    2101        .!      MOVS     r1,#1
        0x08001f54:    4298        .B      CMP      r0,r3
        0x08001f56:    d101        ..      BNE      0x8001f5c ; SPIx_DMA_InterruptConfigure + 16
        0x08001f58:    200a        .       MOVS     r0,#0xa
        0x08001f5a:    e003        ..      B        0x8001f64 ; SPIx_DMA_InterruptConfigure + 24
        0x08001f5c:    4b06        .K      LDR      r3,[pc,#24] ; [0x8001f78] = 0x40003800
        0x08001f5e:    4298        .B      CMP      r0,r3
        0x08001f60:    d107        ..      BNE      0x8001f72 ; SPIx_DMA_InterruptConfigure + 38
        0x08001f62:    200b        .       MOVS     r0,#0xb
        0x08001f64:    466b        kF      MOV      r3,sp
        0x08001f66:    7018        .p      STRB     r0,[r3,#0]
        0x08001f68:    705a        Zp      STRB     r2,[r3,#1]
        0x08001f6a:    7099        .p      STRB     r1,[r3,#2]
        0x08001f6c:    4668        hF      MOV      r0,sp
        0x08001f6e:    f7fff8d3    ....    BL       NVIC_Init ; 0x8001118
        0x08001f72:    bd08        ..      POP      {r3,pc}
    $d
        0x08001f74:    40013000    .0.@    DCD    1073819648
        0x08001f78:    40003800    .8.@    DCD    1073756160
    $t
    i.SPIx_DMA_RxData
    SPIx_DMA_RxData
        0x08001f7c:    b57c        |.      PUSH     {r2-r6,lr}
        0x08001f7e:    4614        .F      MOV      r4,r2
        0x08001f80:    4a2f        /J      LDR      r2,[pc,#188] ; [0x8002040] = 0x8002d28
        0x08001f82:    ca0c        ..      LDM      r2,{r2,r3}
        0x08001f84:    9200        ..      STR      r2,[sp,#0]
        0x08001f86:    9301        ..      STR      r3,[sp,#4]
        0x08001f88:    2200        ."      MOVS     r2,#0
        0x08001f8a:    4d2e        .M      LDR      r5,[pc,#184] ; [0x8002044] = 0x200001e2
        0x08001f8c:    4e2e        .N      LDR      r6,[pc,#184] ; [0x8002048] = 0x40013000
        0x08001f8e:    706a        jp      STRB     r2,[r5,#1]
        0x08001f90:    702a        *p      STRB     r2,[r5,#0]
        0x08001f92:    42b0        .B      CMP      r0,r6
        0x08001f94:    d11e        ..      BNE      0x8001fd4 ; SPIx_DMA_RxData + 88
        0x08001f96:    2380        .#      MOVS     r3,#0x80
        0x08001f98:    4622        "F      MOV      r2,r4
        0x08001f9a:    482c        ,H      LDR      r0,[pc,#176] ; [0x800204c] = 0x4002001c
        0x08001f9c:    f7ffff46    ..F.    BL       SPIx_DMA_Configure ; 0x8001e2c
        0x08001fa0:    482a        *H      LDR      r0,[pc,#168] ; [0x800204c] = 0x4002001c
        0x08001fa2:    2300        .#      MOVS     r3,#0
        0x08001fa4:    4622        "F      MOV      r2,r4
        0x08001fa6:    4669        iF      MOV      r1,sp
        0x08001fa8:    3014        .0      ADDS     r0,r0,#0x14
        0x08001faa:    f7ffff3f    ..?.    BL       SPIx_DMA_Configure ; 0x8001e2c
        0x08001fae:    4634        4F      MOV      r4,r6
        0x08001fb0:    4630        0F      MOV      r0,r6
        0x08001fb2:    f7ffffcb    ....    BL       SPIx_DMA_InterruptConfigure ; 0x8001f4c
        0x08001fb6:    2101        .!      MOVS     r1,#1
        0x08001fb8:    4620         F      MOV      r0,r4
        0x08001fba:    f7fffdb6    ....    BL       SPI_DMACmd ; 0x8001b2a
        0x08001fbe:    7869        ix      LDRB     r1,[r5,#1]
        0x08001fc0:    2900        .)      CMP      r1,#0
        0x08001fc2:    d0fd        ..      BEQ      0x8001fc0 ; SPIx_DMA_RxData + 68
        0x08001fc4:    7829        )x      LDRB     r1,[r5,#0]
        0x08001fc6:    2900        .)      CMP      r1,#0
        0x08001fc8:    d0fd        ..      BEQ      0x8001fc6 ; SPIx_DMA_RxData + 74
        0x08001fca:    2100        .!      MOVS     r1,#0
        0x08001fcc:    4620         F      MOV      r0,r4
        0x08001fce:    f7fffdac    ....    BL       SPI_DMACmd ; 0x8001b2a
        0x08001fd2:    bd7c        |.      POP      {r2-r6,pc}
        0x08001fd4:    4b1e        .K      LDR      r3,[pc,#120] ; [0x8002050] = 0x40003800
        0x08001fd6:    4298        .B      CMP      r0,r3
        0x08001fd8:    d1fb        ..      BNE      0x8001fd2 ; SPIx_DMA_RxData + 86
        0x08001fda:    481c        .H      LDR      r0,[pc,#112] ; [0x800204c] = 0x4002001c
        0x08001fdc:    3024        $0      ADDS     r0,r0,#0x24
        0x08001fde:    6982        .i      LDR      r2,[r0,#0x18]
        0x08001fe0:    0852        R.      LSRS     r2,r2,#1
        0x08001fe2:    0052        R.      LSLS     r2,r2,#1
        0x08001fe4:    6182        .a      STR      r2,[r0,#0x18]
        0x08001fe6:    6982        .i      LDR      r2,[r0,#0x18]
        0x08001fe8:    2680        .&      MOVS     r6,#0x80
        0x08001fea:    43b2        .C      BICS     r2,r2,r6
        0x08001fec:    6182        .a      STR      r2,[r0,#0x18]
        0x08001fee:    466a        jF      MOV      r2,sp
        0x08001ff0:    6242        Bb      STR      r2,[r0,#0x24]
        0x08001ff2:    61c4        .a      STR      r4,[r0,#0x1c]
        0x08001ff4:    6982        .i      LDR      r2,[r0,#0x18]
        0x08001ff6:    2501        .%      MOVS     r5,#1
        0x08001ff8:    432a        *C      ORRS     r2,r2,r5
        0x08001ffa:    6182        .a      STR      r2,[r0,#0x18]
        0x08001ffc:    6842        Bh      LDR      r2,[r0,#4]
        0x08001ffe:    43aa        .C      BICS     r2,r2,r5
        0x08002000:    6042        B`      STR      r2,[r0,#4]
        0x08002002:    6842        Bh      LDR      r2,[r0,#4]
        0x08002004:    4332        2C      ORRS     r2,r2,r6
        0x08002006:    6042        B`      STR      r2,[r0,#4]
        0x08002008:    6101        .a      STR      r1,[r0,#0x10]
        0x0800200a:    6084        .`      STR      r4,[r0,#8]
        0x0800200c:    6841        Ah      LDR      r1,[r0,#4]
        0x0800200e:    4329        )C      ORRS     r1,r1,r5
        0x08002010:    6041        A`      STR      r1,[r0,#4]
        0x08002012:    6998        .i      LDR      r0,[r3,#0x18]
        0x08002014:    155a        Z.      ASRS     r2,r3,#21
        0x08002016:    4310        .C      ORRS     r0,r0,r2
        0x08002018:    6198        .a      STR      r0,[r3,#0x18]
        0x0800201a:    480c        .H      LDR      r0,[pc,#48] ; [0x800204c] = 0x4002001c
        0x0800201c:    381c        .8      SUBS     r0,r0,#0x1c
        0x0800201e:    6801        .h      LDR      r1,[r0,#0]
        0x08002020:    0489        ..      LSLS     r1,r1,#18
        0x08002022:    d5fc        ..      BPL      0x800201e ; SPIx_DMA_RxData + 162
        0x08002024:    2101        .!      MOVS     r1,#1
        0x08002026:    0349        I.      LSLS     r1,r1,#13
        0x08002028:    6041        A`      STR      r1,[r0,#4]
        0x0800202a:    6801        .h      LDR      r1,[r0,#0]
        0x0800202c:    0389        ..      LSLS     r1,r1,#14
        0x0800202e:    d5fc        ..      BPL      0x800202a ; SPIx_DMA_RxData + 174
        0x08002030:    2101        .!      MOVS     r1,#1
        0x08002032:    0449        I.      LSLS     r1,r1,#17
        0x08002034:    6041        A`      STR      r1,[r0,#4]
        0x08002036:    6998        .i      LDR      r0,[r3,#0x18]
        0x08002038:    4390        .C      BICS     r0,r0,r2
        0x0800203a:    6198        .a      STR      r0,[r3,#0x18]
        0x0800203c:    bd7c        |.      POP      {r2-r6,pc}
    $d
        0x0800203e:    0000        ..      DCW    0
        0x08002040:    08002d28    (-..    DCD    134229288
        0x08002044:    200001e2    ...     DCD    536871394
        0x08002048:    40013000    .0.@    DCD    1073819648
        0x0800204c:    4002001c    ...@    DCD    1073872924
        0x08002050:    40003800    .8.@    DCD    1073756160
    $t
    i.SPIx_DMA_TxData
    SPIx_DMA_TxData
        0x08002054:    b5fe        ..      PUSH     {r1-r7,lr}
        0x08002056:    460d        .F      MOV      r5,r1
        0x08002058:    2100        .!      MOVS     r1,#0
        0x0800205a:    4e2d        -N      LDR      r6,[pc,#180] ; [0x8002110] = 0x200001e2
        0x0800205c:    4f2d        -O      LDR      r7,[pc,#180] ; [0x8002114] = 0x40013000
        0x0800205e:    7071        qp      STRB     r1,[r6,#1]
        0x08002060:    4614        .F      MOV      r4,r2
        0x08002062:    7031        1p      STRB     r1,[r6,#0]
        0x08002064:    42b8        .B      CMP      r0,r7
        0x08002066:    d11e        ..      BNE      0x80020a6 ; SPIx_DMA_TxData + 82
        0x08002068:    2300        .#      MOVS     r3,#0
        0x0800206a:    4669        iF      MOV      r1,sp
        0x0800206c:    482a        *H      LDR      r0,[pc,#168] ; [0x8002118] = 0x4002001c
        0x0800206e:    f7fffedd    ....    BL       SPIx_DMA_Configure ; 0x8001e2c
        0x08002072:    4829        )H      LDR      r0,[pc,#164] ; [0x8002118] = 0x4002001c
        0x08002074:    2380        .#      MOVS     r3,#0x80
        0x08002076:    4622        "F      MOV      r2,r4
        0x08002078:    4629        )F      MOV      r1,r5
        0x0800207a:    3014        .0      ADDS     r0,r0,#0x14
        0x0800207c:    f7fffed6    ....    BL       SPIx_DMA_Configure ; 0x8001e2c
        0x08002080:    463c        <F      MOV      r4,r7
        0x08002082:    4638        8F      MOV      r0,r7
        0x08002084:    f7ffff62    ..b.    BL       SPIx_DMA_InterruptConfigure ; 0x8001f4c
        0x08002088:    2101        .!      MOVS     r1,#1
        0x0800208a:    4620         F      MOV      r0,r4
        0x0800208c:    f7fffd4d    ..M.    BL       SPI_DMACmd ; 0x8001b2a
        0x08002090:    7871        qx      LDRB     r1,[r6,#1]
        0x08002092:    2900        .)      CMP      r1,#0
        0x08002094:    d0fd        ..      BEQ      0x8002092 ; SPIx_DMA_TxData + 62
        0x08002096:    7831        1x      LDRB     r1,[r6,#0]
        0x08002098:    2900        .)      CMP      r1,#0
        0x0800209a:    d0fd        ..      BEQ      0x8002098 ; SPIx_DMA_TxData + 68
        0x0800209c:    2100        .!      MOVS     r1,#0
        0x0800209e:    4620         F      MOV      r0,r4
        0x080020a0:    f7fffd43    ..C.    BL       SPI_DMACmd ; 0x8001b2a
        0x080020a4:    bdfe        ..      POP      {r1-r7,pc}
        0x080020a6:    4b1d        .K      LDR      r3,[pc,#116] ; [0x800211c] = 0x40003800
        0x080020a8:    4298        .B      CMP      r0,r3
        0x080020aa:    d1fb        ..      BNE      0x80020a4 ; SPIx_DMA_TxData + 80
        0x080020ac:    481a        .H      LDR      r0,[pc,#104] ; [0x8002118] = 0x4002001c
        0x080020ae:    3024        $0      ADDS     r0,r0,#0x24
        0x080020b0:    6981        .i      LDR      r1,[r0,#0x18]
        0x080020b2:    0849        I.      LSRS     r1,r1,#1
        0x080020b4:    0049        I.      LSLS     r1,r1,#1
        0x080020b6:    6181        .a      STR      r1,[r0,#0x18]
        0x080020b8:    6981        .i      LDR      r1,[r0,#0x18]
        0x080020ba:    2280        ."      MOVS     r2,#0x80
        0x080020bc:    4311        .C      ORRS     r1,r1,r2
        0x080020be:    6181        .a      STR      r1,[r0,#0x18]
        0x080020c0:    6245        Eb      STR      r5,[r0,#0x24]
        0x080020c2:    61c4        .a      STR      r4,[r0,#0x1c]
        0x080020c4:    6985        .i      LDR      r5,[r0,#0x18]
        0x080020c6:    2101        .!      MOVS     r1,#1
        0x080020c8:    430d        .C      ORRS     r5,r5,r1
        0x080020ca:    6185        .a      STR      r5,[r0,#0x18]
        0x080020cc:    6845        Eh      LDR      r5,[r0,#4]
        0x080020ce:    438d        .C      BICS     r5,r5,r1
        0x080020d0:    6045        E`      STR      r5,[r0,#4]
        0x080020d2:    6845        Eh      LDR      r5,[r0,#4]
        0x080020d4:    4395        .C      BICS     r5,r5,r2
        0x080020d6:    6045        E`      STR      r5,[r0,#4]
        0x080020d8:    466a        jF      MOV      r2,sp
        0x080020da:    6102        .a      STR      r2,[r0,#0x10]
        0x080020dc:    6084        .`      STR      r4,[r0,#8]
        0x080020de:    6842        Bh      LDR      r2,[r0,#4]
        0x080020e0:    430a        .C      ORRS     r2,r2,r1
        0x080020e2:    6042        B`      STR      r2,[r0,#4]
        0x080020e4:    6998        .i      LDR      r0,[r3,#0x18]
        0x080020e6:    024a        J.      LSLS     r2,r1,#9
        0x080020e8:    4310        .C      ORRS     r0,r0,r2
        0x080020ea:    6198        .a      STR      r0,[r3,#0x18]
        0x080020ec:    480a        .H      LDR      r0,[pc,#40] ; [0x8002118] = 0x4002001c
        0x080020ee:    381c        .8      SUBS     r0,r0,#0x1c
        0x080020f0:    6801        .h      LDR      r1,[r0,#0]
        0x080020f2:    0489        ..      LSLS     r1,r1,#18
        0x080020f4:    d5fc        ..      BPL      0x80020f0 ; SPIx_DMA_TxData + 156
        0x080020f6:    2101        .!      MOVS     r1,#1
        0x080020f8:    0349        I.      LSLS     r1,r1,#13
        0x080020fa:    6041        A`      STR      r1,[r0,#4]
        0x080020fc:    6801        .h      LDR      r1,[r0,#0]
        0x080020fe:    0389        ..      LSLS     r1,r1,#14
        0x08002100:    d5fc        ..      BPL      0x80020fc ; SPIx_DMA_TxData + 168
        0x08002102:    2101        .!      MOVS     r1,#1
        0x08002104:    0449        I.      LSLS     r1,r1,#17
        0x08002106:    6041        A`      STR      r1,[r0,#4]
        0x08002108:    6998        .i      LDR      r0,[r3,#0x18]
        0x0800210a:    4390        .C      BICS     r0,r0,r2
        0x0800210c:    6198        .a      STR      r0,[r3,#0x18]
        0x0800210e:    bdfe        ..      POP      {r1-r7,pc}
    $d
        0x08002110:    200001e2    ...     DCD    536871394
        0x08002114:    40013000    .0.@    DCD    1073819648
        0x08002118:    4002001c    ...@    DCD    1073872924
        0x0800211c:    40003800    .8.@    DCD    1073756160
    $t
    i.SPIx_ReadWriteByte
    SPIx_ReadWriteByte
        0x08002120:    2200        ."      MOVS     r2,#0
        0x08002122:    6001        .`      STR      r1,[r0,#0]
        0x08002124:    4b0a        .K      LDR      r3,[pc,#40] ; [0x8002150] = 0xffff
        0x08002126:    e003        ..      B        0x8002130 ; SPIx_ReadWriteByte + 16
        0x08002128:    4611        .F      MOV      r1,r2
        0x0800212a:    1c52        R.      ADDS     r2,r2,#1
        0x0800212c:    4299        .B      CMP      r1,r3
        0x0800212e:    d802        ..      BHI      0x8002136 ; SPIx_ReadWriteByte + 22
        0x08002130:    6881        .h      LDR      r1,[r0,#8]
        0x08002132:    07c9        ..      LSLS     r1,r1,#31
        0x08002134:    d0f8        ..      BEQ      0x8002128 ; SPIx_ReadWriteByte + 8
        0x08002136:    2100        .!      MOVS     r1,#0
        0x08002138:    e003        ..      B        0x8002142 ; SPIx_ReadWriteByte + 34
        0x0800213a:    460a        .F      MOV      r2,r1
        0x0800213c:    1c49        I.      ADDS     r1,r1,#1
        0x0800213e:    429a        .B      CMP      r2,r3
        0x08002140:    d802        ..      BHI      0x8002148 ; SPIx_ReadWriteByte + 40
        0x08002142:    6882        .h      LDR      r2,[r0,#8]
        0x08002144:    0792        ..      LSLS     r2,r2,#30
        0x08002146:    d5f8        ..      BPL      0x800213a ; SPIx_ReadWriteByte + 26
        0x08002148:    6840        @h      LDR      r0,[r0,#4]
        0x0800214a:    b2c0        ..      UXTB     r0,r0
        0x0800214c:    4770        pG      BX       lr
    $d
        0x0800214e:    0000        ..      DCW    0
        0x08002150:    0000ffff    ....    DCD    65535
    $t
    i.SetSysClockTo48_HSI
    SetSysClockTo48_HSI
        0x08002154:    b57f        ..      PUSH     {r0-r6,lr}
        0x08002156:    2100        .!      MOVS     r1,#0
        0x08002158:    4c34        4L      LDR      r4,[pc,#208] ; [0x800222c] = 0x40021000
        0x0800215a:    9100        ..      STR      r1,[sp,#0]
        0x0800215c:    9101        ..      STR      r1,[sp,#4]
        0x0800215e:    6820         h      LDR      r0,[r4,#0]
        0x08002160:    2201        ."      MOVS     r2,#1
        0x08002162:    4310        .C      ORRS     r0,r0,r2
        0x08002164:    6020         `      STR      r0,[r4,#0]
        0x08002166:    2502        .%      MOVS     r5,#2
        0x08002168:    2305        .#      MOVS     r3,#5
        0x0800216a:    021b        ..      LSLS     r3,r3,#8
        0x0800216c:    6820         h      LDR      r0,[r4,#0]
        0x0800216e:    4028        (@      ANDS     r0,r0,r5
        0x08002170:    9001        ..      STR      r0,[sp,#4]
        0x08002172:    9800        ..      LDR      r0,[sp,#0]
        0x08002174:    1c40        @.      ADDS     r0,r0,#1
        0x08002176:    9000        ..      STR      r0,[sp,#0]
        0x08002178:    9801        ..      LDR      r0,[sp,#4]
        0x0800217a:    2800        .(      CMP      r0,#0
        0x0800217c:    d102        ..      BNE      0x8002184 ; SetSysClockTo48_HSI + 48
        0x0800217e:    9800        ..      LDR      r0,[sp,#0]
        0x08002180:    4298        .B      CMP      r0,r3
        0x08002182:    d1f3        ..      BNE      0x800216c ; SetSysClockTo48_HSI + 24
        0x08002184:    6820         h      LDR      r0,[r4,#0]
        0x08002186:    0780        ..      LSLS     r0,r0,#30
        0x08002188:    d54d        M.      BPL      0x8002226 ; SetSysClockTo48_HSI + 210
        0x0800218a:    207d        }       MOVS     r0,#0x7d
        0x0800218c:    0100        ..      LSLS     r0,r0,#4
        0x0800218e:    9201        ..      STR      r2,[sp,#4]
        0x08002190:    1e40        @.      SUBS     r0,r0,#1
        0x08002192:    d2fd        ..      BCS      0x8002190 ; SetSysClockTo48_HSI + 60
        0x08002194:    2a01        .*      CMP      r2,#1
        0x08002196:    d145        E.      BNE      0x8002224 ; SetSysClockTo48_HSI + 208
        0x08002198:    4826        &H      LDR      r0,[pc,#152] ; [0x8002234] = 0x20000000
        0x0800219a:    4925        %I      LDR      r1,[pc,#148] ; [0x8002230] = 0x2dc6c00
        0x0800219c:    6001        .`      STR      r1,[r0,#0]
        0x0800219e:    4826        &H      LDR      r0,[pc,#152] ; [0x8002238] = 0x40022000
        0x080021a0:    6802        .h      LDR      r2,[r0,#0]
        0x080021a2:    2310        .#      MOVS     r3,#0x10
        0x080021a4:    431a        .C      ORRS     r2,r2,r3
        0x080021a6:    6002        .`      STR      r2,[r0,#0]
        0x080021a8:    6802        .h      LDR      r2,[r0,#0]
        0x080021aa:    08d2        ..      LSRS     r2,r2,#3
        0x080021ac:    00d2        ..      LSLS     r2,r2,#3
        0x080021ae:    6002        .`      STR      r2,[r0,#0]
        0x080021b0:    6803        .h      LDR      r3,[r0,#0]
        0x080021b2:    2201        ."      MOVS     r2,#1
        0x080021b4:    4313        .C      ORRS     r3,r3,r2
        0x080021b6:    6003        .`      STR      r3,[r0,#0]
        0x080021b8:    6860        `h      LDR      r0,[r4,#4]
        0x080021ba:    6060        ``      STR      r0,[r4,#4]
        0x080021bc:    6860        `h      LDR      r0,[r4,#4]
        0x080021be:    6060        ``      STR      r0,[r4,#4]
        0x080021c0:    6860        `h      LDR      r0,[r4,#4]
        0x080021c2:    0292        ..      LSLS     r2,r2,#10
        0x080021c4:    4310        .C      ORRS     r0,r0,r2
        0x080021c6:    6060        ``      STR      r0,[r4,#4]
        0x080021c8:    6860        `h      LDR      r0,[r4,#4]
        0x080021ca:    2203        ."      MOVS     r2,#3
        0x080021cc:    0412        ..      LSLS     r2,r2,#16
        0x080021ce:    4390        .C      BICS     r0,r0,r2
        0x080021d0:    6060        ``      STR      r0,[r4,#4]
        0x080021d2:    6820         h      LDR      r0,[r4,#0]
        0x080021d4:    4e19        .N      LDR      r6,[pc,#100] ; [0x800223c] = 0x8fffff
        0x080021d6:    4030        0@      ANDS     r0,r0,r6
        0x080021d8:    6020         `      STR      r0,[r4,#0]
        0x080021da:    ab03        ..      ADD      r3,sp,#0xc
        0x080021dc:    aa02        ..      ADD      r2,sp,#8
        0x080021de:    1088        ..      ASRS     r0,r1,#2
        0x080021e0:    f7fef872    ..r.    BL       AutoCalPllFactor ; 0x80002c8
        0x080021e4:    6820         h      LDR      r0,[r4,#0]
        0x080021e6:    4030        0@      ANDS     r0,r0,r6
        0x080021e8:    6020         `      STR      r0,[r4,#0]
        0x080021ea:    4669        iF      MOV      r1,sp
        0x080021ec:    7a08        .z      LDRB     r0,[r1,#8]
        0x080021ee:    7b09        .{      LDRB     r1,[r1,#0xc]
        0x080021f0:    0680        ..      LSLS     r0,r0,#26
        0x080021f2:    0509        ..      LSLS     r1,r1,#20
        0x080021f4:    4308        .C      ORRS     r0,r0,r1
        0x080021f6:    6821        !h      LDR      r1,[r4,#0]
        0x080021f8:    4308        .C      ORRS     r0,r0,r1
        0x080021fa:    6020         `      STR      r0,[r4,#0]
        0x080021fc:    6820         h      LDR      r0,[r4,#0]
        0x080021fe:    2101        .!      MOVS     r1,#1
        0x08002200:    0609        ..      LSLS     r1,r1,#24
        0x08002202:    4308        .C      ORRS     r0,r0,r1
        0x08002204:    6020         `      STR      r0,[r4,#0]
        0x08002206:    6820         h      LDR      r0,[r4,#0]
        0x08002208:    0180        ..      LSLS     r0,r0,#6
        0x0800220a:    d5fc        ..      BPL      0x8002206 ; SetSysClockTo48_HSI + 178
        0x0800220c:    6860        `h      LDR      r0,[r4,#4]
        0x0800220e:    0880        ..      LSRS     r0,r0,#2
        0x08002210:    0080        ..      LSLS     r0,r0,#2
        0x08002212:    6060        ``      STR      r0,[r4,#4]
        0x08002214:    6860        `h      LDR      r0,[r4,#4]
        0x08002216:    4328        (C      ORRS     r0,r0,r5
        0x08002218:    6060        ``      STR      r0,[r4,#4]
        0x0800221a:    6860        `h      LDR      r0,[r4,#4]
        0x0800221c:    0700        ..      LSLS     r0,r0,#28
        0x0800221e:    0f80        ..      LSRS     r0,r0,#30
        0x08002220:    2802        .(      CMP      r0,#2
        0x08002222:    d1fa        ..      BNE      0x800221a ; SetSysClockTo48_HSI + 198
        0x08002224:    bd7f        ..      POP      {r0-r6,pc}
        0x08002226:    9101        ..      STR      r1,[sp,#4]
        0x08002228:    bd7f        ..      POP      {r0-r6,pc}
    $d
        0x0800222a:    0000        ..      DCW    0
        0x0800222c:    40021000    ...@    DCD    1073876992
        0x08002230:    02dc6c00    .l..    DCD    48000000
        0x08002234:    20000000    ...     DCD    536870912
        0x08002238:    40022000    . .@    DCD    1073881088
        0x0800223c:    008fffff    ....    DCD    9437183
    $t
    i.SysTick_DelayMs
    SysTick_DelayMs
        0x08002240:    4902        .I      LDR      r1,[pc,#8] ; [0x800224c] = 0x200001e4
        0x08002242:    6008        .`      STR      r0,[r1,#0]
        0x08002244:    6808        .h      LDR      r0,[r1,#0]
        0x08002246:    2800        .(      CMP      r0,#0
        0x08002248:    d1fc        ..      BNE      0x8002244 ; SysTick_DelayMs + 4
        0x0800224a:    4770        pG      BX       lr
    $d
        0x0800224c:    200001e4    ...     DCD    536871396
    $t
    i.SysTick_Handler
    SysTick_Handler
        0x08002250:    4803        .H      LDR      r0,[pc,#12] ; [0x8002260] = 0x200001e4
        0x08002252:    6801        .h      LDR      r1,[r0,#0]
        0x08002254:    2900        .)      CMP      r1,#0
        0x08002256:    d002        ..      BEQ      0x800225e ; SysTick_Handler + 14
        0x08002258:    6801        .h      LDR      r1,[r0,#0]
        0x0800225a:    1e49        I.      SUBS     r1,r1,#1
        0x0800225c:    6001        .`      STR      r1,[r0,#0]
        0x0800225e:    4770        pG      BX       lr
    $d
        0x08002260:    200001e4    ...     DCD    536871396
    $t
    i.SysTick_Init
    SysTick_Init
        0x08002264:    b570        p.      PUSH     {r4-r6,lr}
        0x08002266:    4604        .F      MOV      r4,r0
        0x08002268:    f7fefff4    ....    BL       RCC_GetSysClockFreq ; 0x8001254
        0x0800226c:    4621        !F      MOV      r1,r4
        0x0800226e:    f7fdff61    ..a.    BL       __aeabi_uidiv ; 0x8000134
        0x08002272:    490c        .I      LDR      r1,[pc,#48] ; [0x80022a4] = 0xffffff
        0x08002274:    2500        .%      MOVS     r5,#0
        0x08002276:    43ed        .C      MVNS     r5,r5
        0x08002278:    1e40        @.      SUBS     r0,r0,#1
        0x0800227a:    4288        .B      CMP      r0,r1
        0x0800227c:    d903        ..      BLS      0x8002286 ; SysTick_Init + 34
        0x0800227e:    2001        .       MOVS     r0,#1
        0x08002280:    2800        .(      CMP      r0,#0
        0x08002282:    d00a        ..      BEQ      0x800229a ; SysTick_Init + 54
        0x08002284:    e7fe        ..      B        0x8002284 ; SysTick_Init + 32
        0x08002286:    4c08        .L      LDR      r4,[pc,#32] ; [0x80022a8] = 0xe000e000
        0x08002288:    6160        `a      STR      r0,[r4,#0x14]
        0x0800228a:    2103        .!      MOVS     r1,#3
        0x0800228c:    4628        (F      MOV      r0,r5
        0x0800228e:    f7feff6b    ..k.    BL       NVIC_SetPriority ; 0x8001168
        0x08002292:    2000        .       MOVS     r0,#0
        0x08002294:    61a0        .a      STR      r0,[r4,#0x18]
        0x08002296:    2007        .       MOVS     r0,#7
        0x08002298:    6120         a      STR      r0,[r4,#0x10]
        0x0800229a:    2100        .!      MOVS     r1,#0
        0x0800229c:    4628        (F      MOV      r0,r5
        0x0800229e:    f7feff63    ..c.    BL       NVIC_SetPriority ; 0x8001168
        0x080022a2:    bd70        p.      POP      {r4-r6,pc}
    $d
        0x080022a4:    00ffffff    ....    DCD    16777215
        0x080022a8:    e000e000    ....    DCD    3758153728
    $t
    i.SystemInit
    SystemInit
        0x080022ac:    b510        ..      PUSH     {r4,lr}
        0x080022ae:    4810        .H      LDR      r0,[pc,#64] ; [0x80022f0] = 0x40021000
        0x080022b0:    6801        .h      LDR      r1,[r0,#0]
        0x080022b2:    2201        ."      MOVS     r2,#1
        0x080022b4:    4311        .C      ORRS     r1,r1,r2
        0x080022b6:    6001        .`      STR      r1,[r0,#0]
        0x080022b8:    6841        Ah      LDR      r1,[r0,#4]
        0x080022ba:    4a0e        .J      LDR      r2,[pc,#56] ; [0x80022f4] = 0xf8ffc00c
        0x080022bc:    4011        .@      ANDS     r1,r1,r2
        0x080022be:    6041        A`      STR      r1,[r0,#4]
        0x080022c0:    6801        .h      LDR      r1,[r0,#0]
        0x080022c2:    4a0d        .J      LDR      r2,[pc,#52] ; [0x80022f8] = 0xfef6ffff
        0x080022c4:    4011        .@      ANDS     r1,r1,r2
        0x080022c6:    6001        .`      STR      r1,[r0,#0]
        0x080022c8:    6801        .h      LDR      r1,[r0,#0]
        0x080022ca:    2201        ."      MOVS     r2,#1
        0x080022cc:    0492        ..      LSLS     r2,r2,#18
        0x080022ce:    4391        .C      BICS     r1,r1,r2
        0x080022d0:    6001        .`      STR      r1,[r0,#0]
        0x080022d2:    6841        Ah      LDR      r1,[r0,#4]
        0x080022d4:    22c3        ."      MOVS     r2,#0xc3
        0x080022d6:    0412        ..      LSLS     r2,r2,#16
        0x080022d8:    4391        .C      BICS     r1,r1,r2
        0x080022da:    6041        A`      STR      r1,[r0,#4]
        0x080022dc:    6801        .h      LDR      r1,[r0,#0]
        0x080022de:    4a07        .J      LDR      r2,[pc,#28] ; [0x80022fc] = 0x8fffff
        0x080022e0:    4011        .@      ANDS     r1,r1,r2
        0x080022e2:    6001        .`      STR      r1,[r0,#0]
        0x080022e4:    219f        .!      MOVS     r1,#0x9f
        0x080022e6:    0409        ..      LSLS     r1,r1,#16
        0x080022e8:    6081        .`      STR      r1,[r0,#8]
        0x080022ea:    f7ffff33    ..3.    BL       SetSysClockTo48_HSI ; 0x8002154
        0x080022ee:    bd10        ..      POP      {r4,pc}
    $d
        0x080022f0:    40021000    ...@    DCD    1073876992
        0x080022f4:    f8ffc00c    ....    DCD    4177510412
        0x080022f8:    fef6ffff    ....    DCD    4277600255
        0x080022fc:    008fffff    ....    DCD    9437183
    $t
    i.UART_Cmd
    UART_Cmd
        0x08002300:    6982        .i      LDR      r2,[r0,#0x18]
        0x08002302:    0852        R.      LSRS     r2,r2,#1
        0x08002304:    0052        R.      LSLS     r2,r2,#1
        0x08002306:    430a        .C      ORRS     r2,r2,r1
        0x08002308:    6182        .a      STR      r2,[r0,#0x18]
        0x0800230a:    4770        pG      BX       lr
    i.UART_GetFlagStatus
    UART_GetFlagStatus
        0x0800230c:    6880        .h      LDR      r0,[r0,#8]
        0x0800230e:    4008        .@      ANDS     r0,r0,r1
        0x08002310:    d000        ..      BEQ      0x8002314 ; UART_GetFlagStatus + 8
        0x08002312:    2001        .       MOVS     r0,#1
        0x08002314:    4770        pG      BX       lr
        0x08002316:    0000        ..      MOVS     r0,r0
    i.UART_Init
    UART_Init
        0x08002318:    b570        p.      PUSH     {r4-r6,lr}
        0x0800231a:    4604        .F      MOV      r4,r0
        0x0800231c:    69c0        .i      LDR      r0,[r0,#0x1c]
        0x0800231e:    460d        .F      MOV      r5,r1
        0x08002320:    2130        0!      MOVS     r1,#0x30
        0x08002322:    4388        .C      BICS     r0,r0,r1
        0x08002324:    7929        )y      LDRB     r1,[r5,#4]
        0x08002326:    4308        .C      ORRS     r0,r0,r1
        0x08002328:    61e0        .a      STR      r0,[r4,#0x1c]
        0x0800232a:    69e0        .i      LDR      r0,[r4,#0x1c]
        0x0800232c:    2104        .!      MOVS     r1,#4
        0x0800232e:    79aa        .y      LDRB     r2,[r5,#6]
        0x08002330:    4388        .C      BICS     r0,r0,r1
        0x08002332:    4310        .C      ORRS     r0,r0,r2
        0x08002334:    61e0        .a      STR      r0,[r4,#0x1c]
        0x08002336:    69e0        .i      LDR      r0,[r4,#0x1c]
        0x08002338:    7a2a        *z      LDRB     r2,[r5,#8]
        0x0800233a:    0880        ..      LSRS     r0,r0,#2
        0x0800233c:    0080        ..      LSLS     r0,r0,#2
        0x0800233e:    4310        .C      ORRS     r0,r0,r2
        0x08002340:    61e0        .a      STR      r0,[r4,#0x1c]
        0x08002342:    69a0        .i      LDR      r0,[r4,#0x18]
        0x08002344:    2218        ."      MOVS     r2,#0x18
        0x08002346:    4390        .C      BICS     r0,r0,r2
        0x08002348:    896a        j.      LDRH     r2,[r5,#0xa]
        0x0800234a:    4310        .C      ORRS     r0,r0,r2
        0x0800234c:    61a0        .a      STR      r0,[r4,#0x18]
        0x0800234e:    69a0        .i      LDR      r0,[r4,#0x18]
        0x08002350:    4388        .C      BICS     r0,r0,r1
        0x08002352:    7b29        ){      LDRB     r1,[r5,#0xc]
        0x08002354:    4308        .C      ORRS     r0,r0,r1
        0x08002356:    61a0        .a      STR      r0,[r4,#0x18]
        0x08002358:    480a        .H      LDR      r0,[pc,#40] ; [0x8002384] = 0x40013800
        0x0800235a:    4284        .B      CMP      r4,r0
        0x0800235c:    d102        ..      BNE      0x8002364 ; UART_Init + 76
        0x0800235e:    f7feff69    ..i.    BL       RCC_GetPCLK2Freq ; 0x8001234
        0x08002362:    e001        ..      B        0x8002368 ; UART_Init + 80
        0x08002364:    f7feff56    ..V.    BL       RCC_GetPCLK1Freq ; 0x8001214
        0x08002368:    4606        .F      MOV      r6,r0
        0x0800236a:    6829        )h      LDR      r1,[r5,#0]
        0x0800236c:    f7fdfee2    ....    BL       __aeabi_uidiv ; 0x8000134
        0x08002370:    0900        ..      LSRS     r0,r0,#4
        0x08002372:    6220         b      STR      r0,[r4,#0x20]
        0x08002374:    4630        0F      MOV      r0,r6
        0x08002376:    6829        )h      LDR      r1,[r5,#0]
        0x08002378:    f7fdfedc    ....    BL       __aeabi_uidiv ; 0x8000134
        0x0800237c:    0700        ..      LSLS     r0,r0,#28
        0x0800237e:    0f00        ..      LSRS     r0,r0,#28
        0x08002380:    6260        `b      STR      r0,[r4,#0x24]
        0x08002382:    bd70        p.      POP      {r4-r6,pc}
    $d
        0x08002384:    40013800    .8.@    DCD    1073821696
    $t
    i.UART_SendData
    UART_SendData
        0x08002388:    b2c9        ..      UXTB     r1,r1
        0x0800238a:    6001        .`      STR      r1,[r0,#0]
        0x0800238c:    4770        pG      BX       lr
    i.UART_StructInit
    UART_StructInit
        0x0800238e:    214b        K!      MOVS     r1,#0x4b
        0x08002390:    01c9        ..      LSLS     r1,r1,#7
        0x08002392:    6001        .`      STR      r1,[r0,#0]
        0x08002394:    2130        0!      MOVS     r1,#0x30
        0x08002396:    7101        .q      STRB     r1,[r0,#4]
        0x08002398:    2100        .!      MOVS     r1,#0
        0x0800239a:    7181        .q      STRB     r1,[r0,#6]
        0x0800239c:    7201        .r      STRB     r1,[r0,#8]
        0x0800239e:    2218        ."      MOVS     r2,#0x18
        0x080023a0:    8142        B.      STRH     r2,[r0,#0xa]
        0x080023a2:    7301        .s      STRB     r1,[r0,#0xc]
        0x080023a4:    4770        pG      BX       lr
        0x080023a6:    0000        ..      MOVS     r0,r0
    i.UARTx_Configure
    UARTx_Configure
        0x080023a8:    b5f0        ..      PUSH     {r4-r7,lr}
        0x080023aa:    460e        .F      MOV      r6,r1
        0x080023ac:    b085        ..      SUB      sp,sp,#0x14
        0x080023ae:    4947        GI      LDR      r1,[pc,#284] ; [0x80024cc] = 0x40013800
        0x080023b0:    9f0a        ..      LDR      r7,[sp,#0x28]
        0x080023b2:    461c        .F      MOV      r4,r3
        0x080023b4:    4615        .F      MOV      r5,r2
        0x080023b6:    4288        .B      CMP      r0,r1
        0x080023b8:    d140        @.      BNE      0x800243c ; UARTx_Configure + 148
        0x080023ba:    2101        .!      MOVS     r1,#1
        0x080023bc:    0388        ..      LSLS     r0,r1,#14
        0x080023be:    f7feff0d    ....    BL       RCC_APB2PeriphClockCmd ; 0x80011dc
        0x080023c2:    4668        hF      MOV      r0,sp
        0x080023c4:    f7ffffe3    ....    BL       UART_StructInit ; 0x800238e
        0x080023c8:    4668        hF      MOV      r0,sp
        0x080023ca:    9600        ..      STR      r6,[sp,#0]
        0x080023cc:    8085        ..      STRH     r5,[r0,#4]
        0x080023ce:    80c4        ..      STRH     r4,[r0,#6]
        0x080023d0:    8107        ..      STRH     r7,[r0,#8]
        0x080023d2:    2100        .!      MOVS     r1,#0
        0x080023d4:    8181        ..      STRH     r1,[r0,#0xc]
        0x080023d6:    2418        .$      MOVS     r4,#0x18
        0x080023d8:    4d3c        <M      LDR      r5,[pc,#240] ; [0x80024cc] = 0x40013800
        0x080023da:    8144        D.      STRH     r4,[r0,#0xa]
        0x080023dc:    4669        iF      MOV      r1,sp
        0x080023de:    4628        (F      MOV      r0,r5
        0x080023e0:    f7ffff9a    ....    BL       UART_Init ; 0x8002318
        0x080023e4:    2101        .!      MOVS     r1,#1
        0x080023e6:    0448        H.      LSLS     r0,r1,#17
        0x080023e8:    f7fefee0    ....    BL       RCC_AHBPeriphClockCmd ; 0x80011ac
        0x080023ec:    2101        .!      MOVS     r1,#1
        0x080023ee:    4608        .F      MOV      r0,r1
        0x080023f0:    f7fefef4    ....    BL       RCC_APB2PeriphClockCmd ; 0x80011dc
        0x080023f4:    2109        .!      MOVS     r1,#9
        0x080023f6:    06ce        ..      LSLS     r6,r1,#27
        0x080023f8:    2201        ."      MOVS     r2,#1
        0x080023fa:    4630        0F      MOV      r0,r6
        0x080023fc:    f7fef96f    ..o.    BL       GPIO_PinAFConfig ; 0x80006de
        0x08002400:    2201        ."      MOVS     r2,#1
        0x08002402:    210a        .!      MOVS     r1,#0xa
        0x08002404:    4630        0F      MOV      r0,r6
        0x08002406:    f7fef96a    ..j.    BL       GPIO_PinAFConfig ; 0x80006de
        0x0800240a:    a804        ..      ADD      r0,sp,#0x10
        0x0800240c:    f7fef980    ....    BL       GPIO_StructInit ; 0x8000710
        0x08002410:    1569        i.      ASRS     r1,r5,#21
        0x08002412:    4668        hF      MOV      r0,sp
        0x08002414:    8201        ..      STRH     r1,[r0,#0x10]
        0x08002416:    2101        .!      MOVS     r1,#1
        0x08002418:    7481        .t      STRB     r1,[r0,#0x12]
        0x0800241a:    74c4        .t      STRB     r4,[r0,#0x13]
        0x0800241c:    a904        ..      ADD      r1,sp,#0x10
        0x0800241e:    4630        0F      MOV      r0,r6
        0x08002420:    f7fef91a    ....    BL       GPIO_Init ; 0x8000658
        0x08002424:    1529        ).      ASRS     r1,r5,#20
        0x08002426:    4668        hF      MOV      r0,sp
        0x08002428:    8201        ..      STRH     r1,[r0,#0x10]
        0x0800242a:    2104        .!      MOVS     r1,#4
        0x0800242c:    74c1        .t      STRB     r1,[r0,#0x13]
        0x0800242e:    a904        ..      ADD      r1,sp,#0x10
        0x08002430:    4630        0F      MOV      r0,r6
        0x08002432:    f7fef911    ....    BL       GPIO_Init ; 0x8000658
        0x08002436:    2101        .!      MOVS     r1,#1
        0x08002438:    4628        (F      MOV      r0,r5
        0x0800243a:    e042        B.      B        0x80024c2 ; UARTx_Configure + 282
        0x0800243c:    4924        $I      LDR      r1,[pc,#144] ; [0x80024d0] = 0x40004400
        0x0800243e:    4288        .B      CMP      r0,r1
        0x08002440:    d141        A.      BNE      0x80024c6 ; UARTx_Configure + 286
        0x08002442:    2101        .!      MOVS     r1,#1
        0x08002444:    0448        H.      LSLS     r0,r1,#17
        0x08002446:    f7fefebd    ....    BL       RCC_APB1PeriphClockCmd ; 0x80011c4
        0x0800244a:    4668        hF      MOV      r0,sp
        0x0800244c:    f7ffff9f    ....    BL       UART_StructInit ; 0x800238e
        0x08002450:    9600        ..      STR      r6,[sp,#0]
        0x08002452:    4668        hF      MOV      r0,sp
        0x08002454:    8085        ..      STRH     r5,[r0,#4]
        0x08002456:    80c4        ..      STRH     r4,[r0,#6]
        0x08002458:    8107        ..      STRH     r7,[r0,#8]
        0x0800245a:    2100        .!      MOVS     r1,#0
        0x0800245c:    8181        ..      STRH     r1,[r0,#0xc]
        0x0800245e:    2418        .$      MOVS     r4,#0x18
        0x08002460:    4e1b        .N      LDR      r6,[pc,#108] ; [0x80024d0] = 0x40004400
        0x08002462:    8144        D.      STRH     r4,[r0,#0xa]
        0x08002464:    4669        iF      MOV      r1,sp
        0x08002466:    4630        0F      MOV      r0,r6
        0x08002468:    f7ffff56    ..V.    BL       UART_Init ; 0x8002318
        0x0800246c:    2101        .!      MOVS     r1,#1
        0x0800246e:    0448        H.      LSLS     r0,r1,#17
        0x08002470:    f7fefe9c    ....    BL       RCC_AHBPeriphClockCmd ; 0x80011ac
        0x08002474:    2101        .!      MOVS     r1,#1
        0x08002476:    4608        .F      MOV      r0,r1
        0x08002478:    f7fefeb0    ....    BL       RCC_APB2PeriphClockCmd ; 0x80011dc
        0x0800247c:    2709        .'      MOVS     r7,#9
        0x0800247e:    06ff        ..      LSLS     r7,r7,#27
        0x08002480:    2201        ."      MOVS     r2,#1
        0x08002482:    2102        .!      MOVS     r1,#2
        0x08002484:    4638        8F      MOV      r0,r7
        0x08002486:    f7fef92a    ..*.    BL       GPIO_PinAFConfig ; 0x80006de
        0x0800248a:    2201        ."      MOVS     r2,#1
        0x0800248c:    2103        .!      MOVS     r1,#3
        0x0800248e:    4638        8F      MOV      r0,r7
        0x08002490:    f7fef925    ..%.    BL       GPIO_PinAFConfig ; 0x80006de
        0x08002494:    a804        ..      ADD      r0,sp,#0x10
        0x08002496:    f7fef93b    ..;.    BL       GPIO_StructInit ; 0x8000710
        0x0800249a:    2504        .%      MOVS     r5,#4
        0x0800249c:    4668        hF      MOV      r0,sp
        0x0800249e:    8205        ..      STRH     r5,[r0,#0x10]
        0x080024a0:    2101        .!      MOVS     r1,#1
        0x080024a2:    7481        .t      STRB     r1,[r0,#0x12]
        0x080024a4:    74c4        .t      STRB     r4,[r0,#0x13]
        0x080024a6:    a904        ..      ADD      r1,sp,#0x10
        0x080024a8:    4638        8F      MOV      r0,r7
        0x080024aa:    f7fef8d5    ....    BL       GPIO_Init ; 0x8000658
        0x080024ae:    2108        .!      MOVS     r1,#8
        0x080024b0:    4668        hF      MOV      r0,sp
        0x080024b2:    8201        ..      STRH     r1,[r0,#0x10]
        0x080024b4:    74c5        .t      STRB     r5,[r0,#0x13]
        0x080024b6:    a904        ..      ADD      r1,sp,#0x10
        0x080024b8:    4638        8F      MOV      r0,r7
        0x080024ba:    f7fef8cd    ....    BL       GPIO_Init ; 0x8000658
        0x080024be:    2101        .!      MOVS     r1,#1
        0x080024c0:    4630        0F      MOV      r0,r6
        0x080024c2:    f7ffff1d    ....    BL       UART_Cmd ; 0x8002300
        0x080024c6:    b005        ..      ADD      sp,sp,#0x14
        0x080024c8:    bdf0        ..      POP      {r4-r7,pc}
    $d
        0x080024ca:    0000        ..      DCW    0
        0x080024cc:    40013800    .8.@    DCD    1073821696
        0x080024d0:    40004400    .D.@    DCD    1073759232
    $t
    i.__0printf$5
    __0printf$5
    __1printf$5
    __2printf
        0x080024d4:    b40f        ..      PUSH     {r0-r3}
        0x080024d6:    b510        ..      PUSH     {r4,lr}
        0x080024d8:    a903        ..      ADD      r1,sp,#0xc
        0x080024da:    4b04        .K      LDR      r3,[pc,#16] ; [0x80024ec] = 0x8002831
        0x080024dc:    4a04        .J      LDR      r2,[pc,#16] ; [0x80024f0] = 0x200001f8
        0x080024de:    9802        ..      LDR      r0,[sp,#8]
        0x080024e0:    f000f818    ....    BL       _printf_core ; 0x8002514
        0x080024e4:    bc10        ..      POP      {r4}
        0x080024e6:    bc08        ..      POP      {r3}
        0x080024e8:    b004        ..      ADD      sp,sp,#0x10
        0x080024ea:    4718        .G      BX       r3
    $d
        0x080024ec:    08002831    1(..    DCD    134228017
        0x080024f0:    200001f8    ...     DCD    536871416
    $t
    i.__scatterload_copy
    __scatterload_copy
        0x080024f4:    e002        ..      B        0x80024fc ; __scatterload_copy + 8
        0x080024f6:    c808        ..      LDM      r0!,{r3}
        0x080024f8:    1f12        ..      SUBS     r2,r2,#4
        0x080024fa:    c108        ..      STM      r1!,{r3}
        0x080024fc:    2a00        .*      CMP      r2,#0
        0x080024fe:    d1fa        ..      BNE      0x80024f6 ; __scatterload_copy + 2
        0x08002500:    4770        pG      BX       lr
    i.__scatterload_null
    __scatterload_null
        0x08002502:    4770        pG      BX       lr
    i.__scatterload_zeroinit
    __scatterload_zeroinit
        0x08002504:    2000        .       MOVS     r0,#0
        0x08002506:    e001        ..      B        0x800250c ; __scatterload_zeroinit + 8
        0x08002508:    c101        ..      STM      r1!,{r0}
        0x0800250a:    1f12        ..      SUBS     r2,r2,#4
        0x0800250c:    2a00        .*      CMP      r2,#0
        0x0800250e:    d1fb        ..      BNE      0x8002508 ; __scatterload_zeroinit + 4
        0x08002510:    4770        pG      BX       lr
        0x08002512:    0000        ..      MOVS     r0,r0
    i._printf_core
    _printf_core
        0x08002514:    b5ff        ..      PUSH     {r0-r7,lr}
        0x08002516:    b08f        ..      SUB      sp,sp,#0x3c
        0x08002518:    460f        .F      MOV      r7,r1
        0x0800251a:    4604        .F      MOV      r4,r0
        0x0800251c:    2600        .&      MOVS     r6,#0
        0x0800251e:    e006        ..      B        0x800252e ; _printf_core + 26
        0x08002520:    2825        %(      CMP      r0,#0x25
        0x08002522:    d00a        ..      BEQ      0x800253a ; _printf_core + 38
        0x08002524:    9a12        ..      LDR      r2,[sp,#0x48]
        0x08002526:    9911        ..      LDR      r1,[sp,#0x44]
        0x08002528:    4790        .G      BLX      r2
        0x0800252a:    1c64        d.      ADDS     r4,r4,#1
        0x0800252c:    1c76        v.      ADDS     r6,r6,#1
        0x0800252e:    7820         x      LDRB     r0,[r4,#0]
        0x08002530:    2800        .(      CMP      r0,#0
        0x08002532:    d1f5        ..      BNE      0x8002520 ; _printf_core + 12
        0x08002534:    4630        0F      MOV      r0,r6
        0x08002536:    b013        ..      ADD      sp,sp,#0x4c
        0x08002538:    bdf0        ..      POP      {r4-r7,pc}
        0x0800253a:    2500        .%      MOVS     r5,#0
        0x0800253c:    2101        .!      MOVS     r1,#1
        0x0800253e:    4aa1        .J      LDR      r2,[pc,#644] ; [0x80027c4] = 0x12809
        0x08002540:    9500        ..      STR      r5,[sp,#0]
        0x08002542:    e000        ..      B        0x8002546 ; _printf_core + 50
        0x08002544:    4305        .C      ORRS     r5,r5,r0
        0x08002546:    1c64        d.      ADDS     r4,r4,#1
        0x08002548:    7823        #x      LDRB     r3,[r4,#0]
        0x0800254a:    4608        .F      MOV      r0,r1
        0x0800254c:    3b20         ;      SUBS     r3,r3,#0x20
        0x0800254e:    4098        .@      LSLS     r0,r0,r3
        0x08002550:    4210        .B      TST      r0,r2
        0x08002552:    d1f7        ..      BNE      0x8002544 ; _printf_core + 48
        0x08002554:    7820         x      LDRB     r0,[r4,#0]
        0x08002556:    282e        .(      CMP      r0,#0x2e
        0x08002558:    d115        ..      BNE      0x8002586 ; _printf_core + 114
        0x0800255a:    2004        .       MOVS     r0,#4
        0x0800255c:    4305        .C      ORRS     r5,r5,r0
        0x0800255e:    7860        `x      LDRB     r0,[r4,#1]
        0x08002560:    1c64        d.      ADDS     r4,r4,#1
        0x08002562:    282a        *(      CMP      r0,#0x2a
        0x08002564:    d10a        ..      BNE      0x800257c ; _printf_core + 104
        0x08002566:    cf01        ..      LDM      r7!,{r0}
        0x08002568:    1c64        d.      ADDS     r4,r4,#1
        0x0800256a:    9000        ..      STR      r0,[sp,#0]
        0x0800256c:    e00b        ..      B        0x8002586 ; _printf_core + 114
        0x0800256e:    9900        ..      LDR      r1,[sp,#0]
        0x08002570:    220a        ."      MOVS     r2,#0xa
        0x08002572:    4351        QC      MULS     r1,r2,r1
        0x08002574:    3930        09      SUBS     r1,r1,#0x30
        0x08002576:    1840        @.      ADDS     r0,r0,r1
        0x08002578:    1c64        d.      ADDS     r4,r4,#1
        0x0800257a:    9000        ..      STR      r0,[sp,#0]
        0x0800257c:    7820         x      LDRB     r0,[r4,#0]
        0x0800257e:    4601        .F      MOV      r1,r0
        0x08002580:    3930        09      SUBS     r1,r1,#0x30
        0x08002582:    2909        .)      CMP      r1,#9
        0x08002584:    d9f3        ..      BLS      0x800256e ; _printf_core + 90
        0x08002586:    7820         x      LDRB     r0,[r4,#0]
        0x08002588:    286c        l(      CMP      r0,#0x6c
        0x0800258a:    d00e        ..      BEQ      0x80025aa ; _printf_core + 150
        0x0800258c:    dc04        ..      BGT      0x8002598 ; _printf_core + 132
        0x0800258e:    284c        L(      CMP      r0,#0x4c
        0x08002590:    d013        ..      BEQ      0x80025ba ; _printf_core + 166
        0x08002592:    286a        j(      CMP      r0,#0x6a
        0x08002594:    d112        ..      BNE      0x80025bc ; _printf_core + 168
        0x08002596:    e004        ..      B        0x80025a2 ; _printf_core + 142
        0x08002598:    2874        t(      CMP      r0,#0x74
        0x0800259a:    d00e        ..      BEQ      0x80025ba ; _printf_core + 166
        0x0800259c:    287a        z(      CMP      r0,#0x7a
        0x0800259e:    d10d        ..      BNE      0x80025bc ; _printf_core + 168
        0x080025a0:    e00b        ..      B        0x80025ba ; _printf_core + 166
        0x080025a2:    2001        .       MOVS     r0,#1
        0x080025a4:    0540        @.      LSLS     r0,r0,#21
        0x080025a6:    4305        .C      ORRS     r5,r5,r0
        0x080025a8:    e007        ..      B        0x80025ba ; _printf_core + 166
        0x080025aa:    2101        .!      MOVS     r1,#1
        0x080025ac:    0509        ..      LSLS     r1,r1,#20
        0x080025ae:    7862        bx      LDRB     r2,[r4,#1]
        0x080025b0:    430d        .C      ORRS     r5,r5,r1
        0x080025b2:    4282        .B      CMP      r2,r0
        0x080025b4:    d101        ..      BNE      0x80025ba ; _printf_core + 166
        0x080025b6:    186d        m.      ADDS     r5,r5,r1
        0x080025b8:    1c64        d.      ADDS     r4,r4,#1
        0x080025ba:    1c64        d.      ADDS     r4,r4,#1
        0x080025bc:    7820         x      LDRB     r0,[r4,#0]
        0x080025be:    4686        .F      MOV      lr,r0
        0x080025c0:    2869        i(      CMP      r0,#0x69
        0x080025c2:    d04a        J.      BEQ      0x800265a ; _printf_core + 326
        0x080025c4:    dc08        ..      BGT      0x80025d8 ; _printf_core + 196
        0x080025c6:    2800        .(      CMP      r0,#0
        0x080025c8:    d0b4        ..      BEQ      0x8002534 ; _printf_core + 32
        0x080025ca:    2858        X(      CMP      r0,#0x58
        0x080025cc:    d06d        m.      BEQ      0x80026aa ; _printf_core + 406
        0x080025ce:    2863        c(      CMP      r0,#0x63
        0x080025d0:    d010        ..      BEQ      0x80025f4 ; _printf_core + 224
        0x080025d2:    2864        d(      CMP      r0,#0x64
        0x080025d4:    d108        ..      BNE      0x80025e8 ; _printf_core + 212
        0x080025d6:    e040        @.      B        0x800265a ; _printf_core + 326
        0x080025d8:    2870        p(      CMP      r0,#0x70
        0x080025da:    d06b        k.      BEQ      0x80026b4 ; _printf_core + 416
        0x080025dc:    2873        s(      CMP      r0,#0x73
        0x080025de:    d012        ..      BEQ      0x8002606 ; _printf_core + 242
        0x080025e0:    2875        u(      CMP      r0,#0x75
        0x080025e2:    d060        `.      BEQ      0x80026a6 ; _printf_core + 402
        0x080025e4:    2878        x(      CMP      r0,#0x78
        0x080025e6:    d060        `.      BEQ      0x80026aa ; _printf_core + 406
        0x080025e8:    9a12        ..      LDR      r2,[sp,#0x48]
        0x080025ea:    4670        pF      MOV      r0,lr
        0x080025ec:    9911        ..      LDR      r1,[sp,#0x44]
        0x080025ee:    4790        .G      BLX      r2
        0x080025f0:    1c76        v.      ADDS     r6,r6,#1
        0x080025f2:    e0e5        ..      B        0x80027c0 ; _printf_core + 684
        0x080025f4:    7838        8x      LDRB     r0,[r7,#0]
        0x080025f6:    4669        iF      MOV      r1,sp
        0x080025f8:    7208        .r      STRB     r0,[r1,#8]
        0x080025fa:    2000        .       MOVS     r0,#0
        0x080025fc:    7248        Hr      STRB     r0,[r1,#9]
        0x080025fe:    a802        ..      ADD      r0,sp,#8
        0x08002600:    9001        ..      STR      r0,[sp,#4]
        0x08002602:    2001        .       MOVS     r0,#1
        0x08002604:    e003        ..      B        0x800260e ; _printf_core + 250
        0x08002606:    6838        8h      LDR      r0,[r7,#0]
        0x08002608:    9001        ..      STR      r0,[sp,#4]
        0x0800260a:    2000        .       MOVS     r0,#0
        0x0800260c:    43c0        .C      MVNS     r0,r0
        0x0800260e:    1d3f        ?.      ADDS     r7,r7,#4
        0x08002610:    0769        i.      LSLS     r1,r5,#29
        0x08002612:    d50c        ..      BPL      0x800262e ; _printf_core + 282
        0x08002614:    2500        .%      MOVS     r5,#0
        0x08002616:    e000        ..      B        0x800261a ; _printf_core + 262
        0x08002618:    1c6d        m.      ADDS     r5,r5,#1
        0x0800261a:    9900        ..      LDR      r1,[sp,#0]
        0x0800261c:    428d        .B      CMP      r5,r1
        0x0800261e:    da0f        ..      BGE      0x8002640 ; _printf_core + 300
        0x08002620:    4285        .B      CMP      r5,r0
        0x08002622:    dbf9        ..      BLT      0x8002618 ; _printf_core + 260
        0x08002624:    9901        ..      LDR      r1,[sp,#4]
        0x08002626:    5d49        I]      LDRB     r1,[r1,r5]
        0x08002628:    2900        .)      CMP      r1,#0
        0x0800262a:    d1f5        ..      BNE      0x8002618 ; _printf_core + 260
        0x0800262c:    e008        ..      B        0x8002640 ; _printf_core + 300
        0x0800262e:    2500        .%      MOVS     r5,#0
        0x08002630:    e000        ..      B        0x8002634 ; _printf_core + 288
        0x08002632:    1c6d        m.      ADDS     r5,r5,#1
        0x08002634:    4285        .B      CMP      r5,r0
        0x08002636:    dbfc        ..      BLT      0x8002632 ; _printf_core + 286
        0x08002638:    9901        ..      LDR      r1,[sp,#4]
        0x0800263a:    5d49        I]      LDRB     r1,[r1,r5]
        0x0800263c:    2900        .)      CMP      r1,#0
        0x0800263e:    d1f8        ..      BNE      0x8002632 ; _printf_core + 286
        0x08002640:    1976        v.      ADDS     r6,r6,r5
        0x08002642:    e007        ..      B        0x8002654 ; _printf_core + 320
        0x08002644:    9801        ..      LDR      r0,[sp,#4]
        0x08002646:    9901        ..      LDR      r1,[sp,#4]
        0x08002648:    7800        .x      LDRB     r0,[r0,#0]
        0x0800264a:    1c49        I.      ADDS     r1,r1,#1
        0x0800264c:    9101        ..      STR      r1,[sp,#4]
        0x0800264e:    9a12        ..      LDR      r2,[sp,#0x48]
        0x08002650:    9911        ..      LDR      r1,[sp,#0x44]
        0x08002652:    4790        .G      BLX      r2
        0x08002654:    1e6d        m.      SUBS     r5,r5,#1
        0x08002656:    d2f5        ..      BCS      0x8002644 ; _printf_core + 304
        0x08002658:    e0b2        ..      B        0x80027c0 ; _printf_core + 684
        0x0800265a:    200a        .       MOVS     r0,#0xa
        0x0800265c:    9002        ..      STR      r0,[sp,#8]
        0x0800265e:    2100        .!      MOVS     r1,#0
        0x08002660:    0268        h.      LSLS     r0,r5,#9
        0x08002662:    0f40        @.      LSRS     r0,r0,#29
        0x08002664:    9103        ..      STR      r1,[sp,#0xc]
        0x08002666:    2802        .(      CMP      r0,#2
        0x08002668:    d00c        ..      BEQ      0x8002684 ; _printf_core + 368
        0x0800266a:    cf01        ..      LDM      r7!,{r0}
        0x0800266c:    17c1        ..      ASRS     r1,r0,#31
        0x0800266e:    4684        .F      MOV      r12,r0
        0x08002670:    2900        .)      CMP      r1,#0
        0x08002672:    da0d        ..      BGE      0x8002690 ; _printf_core + 380
        0x08002674:    4662        bF      MOV      r2,r12
        0x08002676:    4608        .F      MOV      r0,r1
        0x08002678:    4252        RB      RSBS     r2,r2,#0
        0x0800267a:    2100        .!      MOVS     r1,#0
        0x0800267c:    4181        .A      SBCS     r1,r1,r0
        0x0800267e:    4694        .F      MOV      r12,r2
        0x08002680:    202d        -       MOVS     r0,#0x2d
        0x08002682:    e008        ..      B        0x8002696 ; _printf_core + 386
        0x08002684:    1dff        ..      ADDS     r7,r7,#7
        0x08002686:    08ff        ..      LSRS     r7,r7,#3
        0x08002688:    00ff        ..      LSLS     r7,r7,#3
        0x0800268a:    cf03        ..      LDM      r7!,{r0,r1}
        0x0800268c:    4684        .F      MOV      r12,r0
        0x0800268e:    e7ef        ..      B        0x8002670 ; _printf_core + 348
        0x08002690:    0528        (.      LSLS     r0,r5,#20
        0x08002692:    d504        ..      BPL      0x800269e ; _printf_core + 394
        0x08002694:    202b        +       MOVS     r0,#0x2b
        0x08002696:    466a        jF      MOV      r2,sp
        0x08002698:    7410        .t      STRB     r0,[r2,#0x10]
        0x0800269a:    2001        .       MOVS     r0,#1
        0x0800269c:    e03c        <.      B        0x8002718 ; _printf_core + 516
        0x0800269e:    07e8        ..      LSLS     r0,r5,#31
        0x080026a0:    d03a        :.      BEQ      0x8002718 ; _printf_core + 516
        0x080026a2:    2020                MOVS     r0,#0x20
        0x080026a4:    e7f7        ..      B        0x8002696 ; _printf_core + 386
        0x080026a6:    200a        .       MOVS     r0,#0xa
        0x080026a8:    e000        ..      B        0x80026ac ; _printf_core + 408
        0x080026aa:    2010        .       MOVS     r0,#0x10
        0x080026ac:    2100        .!      MOVS     r1,#0
        0x080026ae:    9103        ..      STR      r1,[sp,#0xc]
        0x080026b0:    9002        ..      STR      r0,[sp,#8]
        0x080026b2:    e007        ..      B        0x80026c4 ; _printf_core + 432
        0x080026b4:    2010        .       MOVS     r0,#0x10
        0x080026b6:    9002        ..      STR      r0,[sp,#8]
        0x080026b8:    2100        .!      MOVS     r1,#0
        0x080026ba:    2004        .       MOVS     r0,#4
        0x080026bc:    4305        .C      ORRS     r5,r5,r0
        0x080026be:    2008        .       MOVS     r0,#8
        0x080026c0:    9103        ..      STR      r1,[sp,#0xc]
        0x080026c2:    9000        ..      STR      r0,[sp,#0]
        0x080026c4:    0268        h.      LSLS     r0,r5,#9
        0x080026c6:    0f40        @.      LSRS     r0,r0,#29
        0x080026c8:    2802        .(      CMP      r0,#2
        0x080026ca:    d010        ..      BEQ      0x80026ee ; _printf_core + 474
        0x080026cc:    cf01        ..      LDM      r7!,{r0}
        0x080026ce:    2100        .!      MOVS     r1,#0
        0x080026d0:    4684        .F      MOV      r12,r0
        0x080026d2:    2000        .       MOVS     r0,#0
        0x080026d4:    900d        ..      STR      r0,[sp,#0x34]
        0x080026d6:    0728        (.      LSLS     r0,r5,#28
        0x080026d8:    d51f        ..      BPL      0x800271a ; _printf_core + 518
        0x080026da:    4670        pF      MOV      r0,lr
        0x080026dc:    2870        p(      CMP      r0,#0x70
        0x080026de:    d00c        ..      BEQ      0x80026fa ; _printf_core + 486
        0x080026e0:    9a02        ..      LDR      r2,[sp,#8]
        0x080026e2:    2010        .       MOVS     r0,#0x10
        0x080026e4:    9b03        ..      LDR      r3,[sp,#0xc]
        0x080026e6:    4042        B@      EORS     r2,r2,r0
        0x080026e8:    431a        .C      ORRS     r2,r2,r3
        0x080026ea:    d00c        ..      BEQ      0x8002706 ; _printf_core + 498
        0x080026ec:    e015        ..      B        0x800271a ; _printf_core + 518
        0x080026ee:    1dff        ..      ADDS     r7,r7,#7
        0x080026f0:    08ff        ..      LSRS     r7,r7,#3
        0x080026f2:    00ff        ..      LSLS     r7,r7,#3
        0x080026f4:    cf03        ..      LDM      r7!,{r0,r1}
        0x080026f6:    4684        .F      MOV      r12,r0
        0x080026f8:    e7eb        ..      B        0x80026d2 ; _printf_core + 446
        0x080026fa:    2040        @       MOVS     r0,#0x40
        0x080026fc:    466a        jF      MOV      r2,sp
        0x080026fe:    7410        .t      STRB     r0,[r2,#0x10]
        0x08002700:    2001        .       MOVS     r0,#1
        0x08002702:    900d        ..      STR      r0,[sp,#0x34]
        0x08002704:    e00c        ..      B        0x8002720 ; _printf_core + 524
        0x08002706:    4660        `F      MOV      r0,r12
        0x08002708:    4308        .C      ORRS     r0,r0,r1
        0x0800270a:    d006        ..      BEQ      0x800271a ; _printf_core + 518
        0x0800270c:    2030        0       MOVS     r0,#0x30
        0x0800270e:    466a        jF      MOV      r2,sp
        0x08002710:    7410        .t      STRB     r0,[r2,#0x10]
        0x08002712:    4670        pF      MOV      r0,lr
        0x08002714:    7450        Pt      STRB     r0,[r2,#0x11]
        0x08002716:    2002        .       MOVS     r0,#2
        0x08002718:    900d        ..      STR      r0,[sp,#0x34]
        0x0800271a:    4670        pF      MOV      r0,lr
        0x0800271c:    2858        X(      CMP      r0,#0x58
        0x0800271e:    d004        ..      BEQ      0x800272a ; _printf_core + 534
        0x08002720:    a029        ).      ADR      r0,{pc}+0xa8 ; 0x80027c8
        0x08002722:    9001        ..      STR      r0,[sp,#4]
        0x08002724:    a80d        ..      ADD      r0,sp,#0x34
        0x08002726:    900e        ..      STR      r0,[sp,#0x38]
        0x08002728:    e00d        ..      B        0x8002746 ; _printf_core + 562
        0x0800272a:    a02c        ,.      ADR      r0,{pc}+0xb2 ; 0x80027dc
        0x0800272c:    e7f9        ..      B        0x8002722 ; _printf_core + 526
        0x0800272e:    4660        `F      MOV      r0,r12
        0x08002730:    9b03        ..      LDR      r3,[sp,#0xc]
        0x08002732:    9a02        ..      LDR      r2,[sp,#8]
        0x08002734:    f7fdfd3a    ..:.    BL       __aeabi_uldivmod ; 0x80001ac
        0x08002738:    9b01        ..      LDR      r3,[sp,#4]
        0x0800273a:    4684        .F      MOV      r12,r0
        0x0800273c:    5c9b        .\      LDRB     r3,[r3,r2]
        0x0800273e:    9a0e        ..      LDR      r2,[sp,#0x38]
        0x08002740:    1e52        R.      SUBS     r2,r2,#1
        0x08002742:    920e        ..      STR      r2,[sp,#0x38]
        0x08002744:    7013        .p      STRB     r3,[r2,#0]
        0x08002746:    4660        `F      MOV      r0,r12
        0x08002748:    4308        .C      ORRS     r0,r0,r1
        0x0800274a:    d1f0        ..      BNE      0x800272e ; _printf_core + 538
        0x0800274c:    980e        ..      LDR      r0,[sp,#0x38]
        0x0800274e:    a905        ..      ADD      r1,sp,#0x14
        0x08002750:    1a08        ..      SUBS     r0,r1,r0
        0x08002752:    3020         0      ADDS     r0,r0,#0x20
        0x08002754:    9001        ..      STR      r0,[sp,#4]
        0x08002756:    0768        h.      LSLS     r0,r5,#29
        0x08002758:    d501        ..      BPL      0x800275e ; _printf_core + 586
        0x0800275a:    9800        ..      LDR      r0,[sp,#0]
        0x0800275c:    e001        ..      B        0x8002762 ; _printf_core + 590
        0x0800275e:    2001        .       MOVS     r0,#1
        0x08002760:    9000        ..      STR      r0,[sp,#0]
        0x08002762:    9901        ..      LDR      r1,[sp,#4]
        0x08002764:    4288        .B      CMP      r0,r1
        0x08002766:    dd03        ..      BLE      0x8002770 ; _printf_core + 604
        0x08002768:    4601        .F      MOV      r1,r0
        0x0800276a:    9801        ..      LDR      r0,[sp,#4]
        0x0800276c:    1a08        ..      SUBS     r0,r1,r0
        0x0800276e:    e000        ..      B        0x8002772 ; _printf_core + 606
        0x08002770:    2000        .       MOVS     r0,#0
        0x08002772:    2500        .%      MOVS     r5,#0
        0x08002774:    9000        ..      STR      r0,[sp,#0]
        0x08002776:    e006        ..      B        0x8002786 ; _printf_core + 626
        0x08002778:    a804        ..      ADD      r0,sp,#0x10
        0x0800277a:    9a12        ..      LDR      r2,[sp,#0x48]
        0x0800277c:    5d40        @]      LDRB     r0,[r0,r5]
        0x0800277e:    9911        ..      LDR      r1,[sp,#0x44]
        0x08002780:    4790        .G      BLX      r2
        0x08002782:    1c6d        m.      ADDS     r5,r5,#1
        0x08002784:    1c76        v.      ADDS     r6,r6,#1
        0x08002786:    980d        ..      LDR      r0,[sp,#0x34]
        0x08002788:    4285        .B      CMP      r5,r0
        0x0800278a:    dbf5        ..      BLT      0x8002778 ; _printf_core + 612
        0x0800278c:    e004        ..      B        0x8002798 ; _printf_core + 644
        0x0800278e:    9a12        ..      LDR      r2,[sp,#0x48]
        0x08002790:    2030        0       MOVS     r0,#0x30
        0x08002792:    9911        ..      LDR      r1,[sp,#0x44]
        0x08002794:    4790        .G      BLX      r2
        0x08002796:    1c76        v.      ADDS     r6,r6,#1
        0x08002798:    9900        ..      LDR      r1,[sp,#0]
        0x0800279a:    1e48        H.      SUBS     r0,r1,#1
        0x0800279c:    9000        ..      STR      r0,[sp,#0]
        0x0800279e:    2900        .)      CMP      r1,#0
        0x080027a0:    dcf5        ..      BGT      0x800278e ; _printf_core + 634
        0x080027a2:    e008        ..      B        0x80027b6 ; _printf_core + 674
        0x080027a4:    980e        ..      LDR      r0,[sp,#0x38]
        0x080027a6:    990e        ..      LDR      r1,[sp,#0x38]
        0x080027a8:    7800        .x      LDRB     r0,[r0,#0]
        0x080027aa:    1c49        I.      ADDS     r1,r1,#1
        0x080027ac:    910e        ..      STR      r1,[sp,#0x38]
        0x080027ae:    9a12        ..      LDR      r2,[sp,#0x48]
        0x080027b0:    9911        ..      LDR      r1,[sp,#0x44]
        0x080027b2:    4790        .G      BLX      r2
        0x080027b4:    1c76        v.      ADDS     r6,r6,#1
        0x080027b6:    9901        ..      LDR      r1,[sp,#4]
        0x080027b8:    1e48        H.      SUBS     r0,r1,#1
        0x080027ba:    9001        ..      STR      r0,[sp,#4]
        0x080027bc:    2900        .)      CMP      r1,#0
        0x080027be:    dcf1        ..      BGT      0x80027a4 ; _printf_core + 656
        0x080027c0:    1c64        d.      ADDS     r4,r4,#1
        0x080027c2:    e6b4        ..      B        0x800252e ; _printf_core + 26
    $d
        0x080027c4:    00012809    .(..    DCD    75785
        0x080027c8:    33323130    0123    DCD    858927408
        0x080027cc:    37363534    4567    DCD    926299444
        0x080027d0:    62613938    89ab    DCD    1650538808
        0x080027d4:    66656463    cdef    DCD    1717920867
        0x080027d8:    00000000    ....    DCD    0
        0x080027dc:    33323130    0123    DCD    858927408
        0x080027e0:    37363534    4567    DCD    926299444
        0x080027e4:    42413938    89AB    DCD    1111570744
        0x080027e8:    46454443    CDEF    DCD    1178944579
        0x080027ec:    00000000    ....    DCD    0
    $t
    i.delay_us
    delay_us
        0x080027f0:    b510        ..      PUSH     {r4,lr}
        0x080027f2:    4604        .F      MOV      r4,r0
        0x080027f4:    4805        .H      LDR      r0,[pc,#20] ; [0x800280c] = 0x20000000
        0x080027f6:    4904        .I      LDR      r1,[pc,#16] ; [0x8002808] = 0x3d0900
        0x080027f8:    6800        .h      LDR      r0,[r0,#0]
        0x080027fa:    f7fdfc9b    ....    BL       __aeabi_uidiv ; 0x8000134
        0x080027fe:    4360        `C      MULS     r0,r4,r0
        0x08002800:    f7fdfc68    ..h.    BL       SysCtlDelay ; 0x80000d4
        0x08002804:    bd10        ..      POP      {r4,pc}
    $d
        0x08002806:    0000        ..      DCW    0
        0x08002808:    003d0900    ..=.    DCD    4000000
        0x0800280c:    20000000    ...     DCD    536870912
    $t
    i.exEXTI_LineDisable
    exEXTI_LineDisable
        0x08002810:    4906        .I      LDR      r1,[pc,#24] ; [0x800282c] = 0x40010400
        0x08002812:    680a        .h      LDR      r2,[r1,#0]
        0x08002814:    4382        .C      BICS     r2,r2,r0
        0x08002816:    600a        .`      STR      r2,[r1,#0]
        0x08002818:    684a        Jh      LDR      r2,[r1,#4]
        0x0800281a:    4382        .C      BICS     r2,r2,r0
        0x0800281c:    604a        J`      STR      r2,[r1,#4]
        0x0800281e:    688a        .h      LDR      r2,[r1,#8]
        0x08002820:    4382        .C      BICS     r2,r2,r0
        0x08002822:    608a        .`      STR      r2,[r1,#8]
        0x08002824:    68ca        .h      LDR      r2,[r1,#0xc]
        0x08002826:    4382        .C      BICS     r2,r2,r0
        0x08002828:    60ca        .`      STR      r2,[r1,#0xc]
        0x0800282a:    4770        pG      BX       lr
    $d
        0x0800282c:    40010400    ...@    DCD    1073808384
    $t
    i.fputc
    fputc
        0x08002830:    b570        p.      PUSH     {r4-r6,lr}
        0x08002832:    4d07        .M      LDR      r5,[pc,#28] ; [0x8002850] = 0x40013800
        0x08002834:    4604        .F      MOV      r4,r0
        0x08002836:    b2c1        ..      UXTB     r1,r0
        0x08002838:    4628        (F      MOV      r0,r5
        0x0800283a:    f7fffda5    ....    BL       UART_SendData ; 0x8002388
        0x0800283e:    2101        .!      MOVS     r1,#1
        0x08002840:    4628        (F      MOV      r0,r5
        0x08002842:    f7fffd63    ..c.    BL       UART_GetFlagStatus ; 0x800230c
        0x08002846:    2800        .(      CMP      r0,#0
        0x08002848:    d0f9        ..      BEQ      0x800283e ; fputc + 14
        0x0800284a:    4620         F      MOV      r0,r4
        0x0800284c:    bd70        p.      POP      {r4-r6,pc}
    $d
        0x0800284e:    0000        ..      DCW    0
        0x08002850:    40013800    .8.@    DCD    1073821696
    $t
    i.initBLEsw
    initBLEsw
        0x08002854:    2100        .!      MOVS     r1,#0
        0x08002856:    4807        .H      LDR      r0,[pc,#28] ; [0x8002874] = 0x20000064
        0x08002858:    7041        Ap      STRB     r1,[r0,#1]
        0x0800285a:    21cd        .!      MOVS     r1,#0xcd
        0x0800285c:    7081        .p      STRB     r1,[r0,#2]
        0x0800285e:    2198        .!      MOVS     r1,#0x98
        0x08002860:    70c1        .p      STRB     r1,[r0,#3]
        0x08002862:    2164        d!      MOVS     r1,#0x64
        0x08002864:    7101        .q      STRB     r1,[r0,#4]
        0x08002866:    2228        ("      MOVS     r2,#0x28
        0x08002868:    7142        Bq      STRB     r2,[r0,#5]
        0x0800286a:    7181        .q      STRB     r1,[r0,#6]
        0x0800286c:    2101        .!      MOVS     r1,#1
        0x0800286e:    71c1        .q      STRB     r1,[r0,#7]
        0x08002870:    4770        pG      BX       lr
    $d
        0x08002872:    0000        ..      DCW    0
        0x08002874:    20000064    d..     DCD    536871012
    $t
    i.initInt
    initInt
        0x08002878:    2000        .       MOVS     r0,#0
        0x0800287a:    4902        .I      LDR      r1,[pc,#8] ; [0x8002884] = 0x20000096
        0x0800287c:    7008        .p      STRB     r0,[r1,#0]
        0x0800287e:    4902        .I      LDR      r1,[pc,#8] ; [0x8002888] = 0x20000098
        0x08002880:    7108        .q      STRB     r0,[r1,#4]
        0x08002882:    4770        pG      BX       lr
    $d
        0x08002884:    20000096    ...     DCD    536871062
        0x08002888:    20000098    ...     DCD    536871064
    $t
    i.initLL
    initLL
        0x0800288c:    b570        p.      PUSH     {r4-r6,lr}
        0x0800288e:    2400        .$      MOVS     r4,#0
        0x08002890:    4620         F      MOV      r0,r4
        0x08002892:    f7fefb4b    ..K.    BL       LL_ReleaseConnID ; 0x8000f2c
        0x08002896:    1c64        d.      ADDS     r4,r4,#1
        0x08002898:    b2e4        ..      UXTB     r4,r4
        0x0800289a:    2c05        .,      CMP      r4,#5
        0x0800289c:    d3f8        ..      BCC      0x8002890 ; initLL + 4
        0x0800289e:    4b19        .K      LDR      r3,[pc,#100] ; [0x8002904] = 0x20000040
        0x080028a0:    2105        .!      MOVS     r1,#5
        0x080028a2:    4819        .H      LDR      r0,[pc,#100] ; [0x8002908] = 0x20000284
        0x080028a4:    7019        .p      STRB     r1,[r3,#0]
        0x080028a6:    2200        ."      MOVS     r2,#0
        0x080028a8:    7002        .p      STRB     r2,[r0,#0]
        0x080028aa:    7041        Ap      STRB     r1,[r0,#1]
        0x080028ac:    4601        .F      MOV      r1,r0
        0x080028ae:    3120         1      ADDS     r1,r1,#0x20
        0x080028b0:    744a        Jt      STRB     r2,[r1,#0x11]
        0x080028b2:    2106        .!      MOVS     r1,#6
        0x080028b4:    7441        At      STRB     r1,[r0,#0x11]
        0x080028b6:    2108        .!      MOVS     r1,#8
        0x080028b8:    715a        Zq      STRB     r2,[r3,#5]
        0x080028ba:    3040        @0      ADDS     r0,r0,#0x40
        0x080028bc:    7441        At      STRB     r1,[r0,#0x11]
        0x080028be:    4c13        .L      LDR      r4,[pc,#76] ; [0x800290c] = 0x2000059c
        0x080028c0:    4610        .F      MOV      r0,r2
        0x080028c2:    1c41        A.      ADDS     r1,r0,#1
        0x080028c4:    2506        .%      MOVS     r5,#6
        0x080028c6:    4368        hC      MULS     r0,r5,r0
        0x080028c8:    5421        !T      STRB     r1,[r4,r0]
        0x080028ca:    b2c8        ..      UXTB     r0,r1
        0x080028cc:    280c        .(      CMP      r0,#0xc
        0x080028ce:    d3f8        ..      BCC      0x80028c2 ; initLL + 54
        0x080028d0:    705a        Zp      STRB     r2,[r3,#1]
        0x080028d2:    200c        .       MOVS     r0,#0xc
        0x080028d4:    7098        .p      STRB     r0,[r3,#2]
        0x080028d6:    480b        .H      LDR      r0,[pc,#44] ; [0x8002904] = 0x20000040
        0x080028d8:    70da        .p      STRB     r2,[r3,#3]
        0x080028da:    1d80        ..      ADDS     r0,r0,#6
        0x080028dc:    711a        .q      STRB     r2,[r3,#4]
        0x080028de:    7082        .p      STRB     r2,[r0,#2]
        0x080028e0:    4601        .F      MOV      r1,r0
        0x080028e2:    2205        ."      MOVS     r2,#5
        0x080028e4:    310e        .1      ADDS     r1,r1,#0xe
        0x080028e6:    3013        .0      ADDS     r0,r0,#0x13
        0x080028e8:    f7fdff1a    ....    BL       Knl_CodeCpy ; 0x8000720
        0x080028ec:    4a07        .J      LDR      r2,[pc,#28] ; [0x800290c] = 0x2000059c
        0x080028ee:    2000        .       MOVS     r0,#0
        0x080028f0:    21fc        .!      MOVS     r1,#0xfc
        0x080028f2:    3a1c        .:      SUBS     r2,r2,#0x1c
        0x080028f4:    00c3        ..      LSLS     r3,r0,#3
        0x080028f6:    1a1b        ..      SUBS     r3,r3,r0
        0x080028f8:    1c40        @.      ADDS     r0,r0,#1
        0x080028fa:    b2c0        ..      UXTB     r0,r0
        0x080028fc:    54d1        .T      STRB     r1,[r2,r3]
        0x080028fe:    2804        .(      CMP      r0,#4
        0x08002900:    d3f8        ..      BCC      0x80028f4 ; initLL + 104
        0x08002902:    bd70        p.      POP      {r4-r6,pc}
    $d
        0x08002904:    20000040    @..     DCD    536870976
        0x08002908:    20000284    ...     DCD    536871556
        0x0800290c:    2000059c    ...     DCD    536872348
    $t
    i.main
    main
        0x08002910:    b508        ..      PUSH     {r3,lr}
        0x08002912:    207d        }       MOVS     r0,#0x7d
        0x08002914:    00c0        ..      LSLS     r0,r0,#3
        0x08002916:    f7fffca5    ....    BL       SysTick_Init ; 0x8002264
        0x0800291a:    2000        .       MOVS     r0,#0
        0x0800291c:    4603        .F      MOV      r3,r0
        0x0800291e:    21e1        .!      MOVS     r1,#0xe1
        0x08002920:    9000        ..      STR      r0,[sp,#0]
        0x08002922:    2230        0"      MOVS     r2,#0x30
        0x08002924:    0249        I.      LSLS     r1,r1,#9
        0x08002926:    480e        .H      LDR      r0,[pc,#56] ; [0x8002960] = 0x40013800
        0x08002928:    f7fffd3e    ..>.    BL       UARTx_Configure ; 0x80023a8
        0x0800292c:    f7fefd8c    ....    BL       RF_Open ; 0x8001448
        0x08002930:    a20c        ..      ADR      r2,{pc}+0x34 ; 0x8002964
        0x08002932:    a10f        ..      ADR      r1,{pc}+0x3e ; 0x8002970
        0x08002934:    a011        ..      ADR      r0,{pc}+0x48 ; 0x800297c
        0x08002936:    f7fffdcd    ....    BL       __0printf$5 ; 0x80024d4
        0x0800293a:    a01b        ..      ADR      r0,{pc}+0x6e ; 0x80029a8
        0x0800293c:    f7fffdca    ....    BL       __0printf$5 ; 0x80024d4
        0x08002940:    a01f        ..      ADR      r0,{pc}+0x80 ; 0x80029c0
        0x08002942:    f7fffdc7    ....    BL       __0printf$5 ; 0x80024d4
        0x08002946:    a018        ..      ADR      r0,{pc}+0x62 ; 0x80029a8
        0x08002948:    f7fffdc4    ....    BL       __0printf$5 ; 0x80024d4
        0x0800294c:    2000        .       MOVS     r0,#0
        0x0800294e:    f7fefff9    ....    BL       SPI_1BYT_SetRx ; 0x8001944
        0x08002952:    4601        .F      MOV      r1,r0
        0x08002954:    a01f        ..      ADR      r0,{pc}+0x80 ; 0x80029d4
        0x08002956:    f7fffdbd    ....    BL       __0printf$5 ; 0x80024d4
        0x0800295a:    f7fdfd0f    ....    BL       BleApp_Main ; 0x800037c
        0x0800295e:    e7fe        ..      B        0x800295e ; main + 78
    $d
        0x08002960:    40013800    .8.@    DCD    1073821696
        0x08002964:    333a3331    13:3    DCD    859452209
        0x08002968:    32303a39    9:02    DCD    842021433
        0x0800296c:    00000000    ....    DCD    0
        0x08002970:    20677541    Aug     DCD    543651137
        0x08002974:    32203832    28 2    DCD    840972338
        0x08002978:    00303230    020.    DCD    3158576
        0x0800297c:    61520a0d    ..Ra    DCD    1632766477
        0x08002980:    6c656166    fael    DCD    1818583398
        0x08002984:    454c425f    _BLE    DCD    1162625631
        0x08002988:    334d4d5f    _MM3    DCD    860704095
        0x0800298c:    65442032    2 De    DCD    1698963506
        0x08002990:    72206f6d    mo r    DCD    1914728301
        0x08002994:    202e6e75    un.     DCD    539913845
        0x08002998:    20776f4e    Now     DCD    544698190
        0x0800299c:    25207369    is %    DCD    622883689
        0x080029a0:    73252073    s %s    DCD    1931812979
        0x080029a4:    00000a0d    ....    DCD    2573
        0x080029a8:    2d2d2d2d    ----    DCD    757935405
        0x080029ac:    2d2d2d2d    ----    DCD    757935405
        0x080029b0:    2d2d2d2d    ----    DCD    757935405
        0x080029b4:    2d2d2d2d    ----    DCD    757935405
        0x080029b8:    0d2d2d2d    ---.    DCD    221064493
        0x080029bc:    0000000a    ....    DCD    10
        0x080029c0:    4c422020      BL    DCD    1279402016
        0x080029c4:    74532045    E St    DCD    1951604805
        0x080029c8:    2e747261    art.    DCD    779383393
        0x080029cc:    2e2e2e2e    ....    DCD    774778414
        0x080029d0:    00000a0d    ....    DCD    2573
        0x080029d4:    70696843    Chip    DCD    1885956163
        0x080029d8:    3d44495f    _ID=    DCD    1027885407
        0x080029dc:    78257830    0x%x    DCD    2015721520
        0x080029e0:    00000a0d    ....    DCD    2573
    $t
    i.rafael_pll_bank_get
    rafael_pll_bank_get
        0x080029e4:    b5f8        ..      PUSH     {r3-r7,lr}
        0x080029e6:    460c        .F      MOV      r4,r1
        0x080029e8:    2200        ."      MOVS     r2,#0
        0x080029ea:    4d16        .M      LDR      r5,[pc,#88] ; [0x8002a44] = 0x200001d8
        0x080029ec:    4e16        .N      LDR      r6,[pc,#88] ; [0x8002a48] = 0x200000bd
        0x080029ee:    0051        Q.      LSLS     r1,r2,#1
        0x080029f0:    5a6b        kZ      LDRH     r3,[r5,r1]
        0x080029f2:    4283        .B      CMP      r3,r0
        0x080029f4:    d101        ..      BNE      0x80029fa ; rafael_pll_bank_get + 22
        0x080029f6:    5cb0        .\      LDRB     r0,[r6,r2]
        0x080029f8:    e01c        ..      B        0x8002a34 ; rafael_pll_bank_get + 80
        0x080029fa:    4283        .B      CMP      r3,r0
        0x080029fc:    d21c        ..      BCS      0x8002a38 ; rafael_pll_bank_get + 84
        0x080029fe:    194f        O.      ADDS     r7,r1,r5
        0x08002a00:    887f        ..      LDRH     r7,[r7,#2]
        0x08002a02:    4287        .B      CMP      r7,r0
        0x08002a04:    d918        ..      BLS      0x8002a38 ; rafael_pll_bank_get + 84
        0x08002a06:    0057        W.      LSLS     r7,r2,#1
        0x08002a08:    197f        ..      ADDS     r7,r7,r5
        0x08002a0a:    887f        ..      LDRH     r7,[r7,#2]
        0x08002a0c:    b299        ..      UXTH     r1,r3
        0x08002a0e:    1a79        y.      SUBS     r1,r7,r1
        0x08002a10:    18b5        ..      ADDS     r5,r6,r2
        0x08002a12:    786f        ox      LDRB     r7,[r5,#1]
        0x08002a14:    5cb5        .\      LDRB     r5,[r6,r2]
        0x08002a16:    1b7a        z.      SUBS     r2,r7,r5
        0x08002a18:    1ac0        ..      SUBS     r0,r0,r3
        0x08002a1a:    4342        BC      MULS     r2,r0,r2
        0x08002a1c:    200a        .       MOVS     r0,#0xa
        0x08002a1e:    4350        PC      MULS     r0,r2,r0
        0x08002a20:    f7fdfb9e    ....    BL       __aeabi_idiv ; 0x8000160
        0x08002a24:    b280        ..      UXTH     r0,r0
        0x08002a26:    210a        .!      MOVS     r1,#0xa
        0x08002a28:    f7fdfb84    ....    BL       __aeabi_uidiv ; 0x8000134
        0x08002a2c:    2905        .)      CMP      r1,#5
        0x08002a2e:    d300        ..      BCC      0x8002a32 ; rafael_pll_bank_get + 78
        0x08002a30:    1c40        @.      ADDS     r0,r0,#1
        0x08002a32:    1940        @.      ADDS     r0,r0,r5
        0x08002a34:    7020         p      STRB     r0,[r4,#0]
        0x08002a36:    bdf8        ..      POP      {r3-r7,pc}
        0x08002a38:    1c52        R.      ADDS     r2,r2,#1
        0x08002a3a:    b2d2        ..      UXTB     r2,r2
        0x08002a3c:    2a05        .*      CMP      r2,#5
        0x08002a3e:    d3d6        ..      BCC      0x80029ee ; rafael_pll_bank_get + 10
        0x08002a40:    bdf8        ..      POP      {r3-r7,pc}
    $d
        0x08002a42:    0000        ..      DCW    0
        0x08002a44:    200001d8    ...     DCD    536871384
        0x08002a48:    200000bd    ...     DCD    536871101
    $t
    i.rafael_pll_calibration
    rafael_pll_calibration
        0x08002a4c:    b5f8        ..      PUSH     {r3-r7,lr}
        0x08002a4e:    2600        .&      MOVS     r6,#0
        0x08002a50:    4631        1F      MOV      r1,r6
        0x08002a52:    203d        =       MOVS     r0,#0x3d
        0x08002a54:    f7feffc6    ....    BL       SPI_1BYT_SetTx ; 0x80019e4
        0x08002a58:    21ff        .!      MOVS     r1,#0xff
        0x08002a5a:    203e        >       MOVS     r0,#0x3e
        0x08002a5c:    f7feffc2    ....    BL       SPI_1BYT_SetTx ; 0x80019e4
        0x08002a60:    21ff        .!      MOVS     r1,#0xff
        0x08002a62:    205b        [       MOVS     r0,#0x5b
        0x08002a64:    f7feffbe    ....    BL       SPI_1BYT_SetTx ; 0x80019e4
        0x08002a68:    2101        .!      MOVS     r1,#1
        0x08002a6a:    2058        X       MOVS     r0,#0x58
        0x08002a6c:    f7feffba    ....    BL       SPI_1BYT_SetTx ; 0x80019e4
        0x08002a70:    483e        >H      LDR      r0,[pc,#248] ; [0x8002b6c] = 0x200005e4
        0x08002a72:    7841        Ax      LDRB     r1,[r0,#1]
        0x08002a74:    2204        ."      MOVS     r2,#4
        0x08002a76:    4311        .C      ORRS     r1,r1,r2
        0x08002a78:    7041        Ap      STRB     r1,[r0,#1]
        0x08002a7a:    7841        Ax      LDRB     r1,[r0,#1]
        0x08002a7c:    2024        $       MOVS     r0,#0x24
        0x08002a7e:    f7feffb1    ....    BL       SPI_1BYT_SetTx ; 0x80019e4
        0x08002a82:    2020                MOVS     r0,#0x20
        0x08002a84:    f7fefd14    ....    BL       RF_PLL_VCO_Bank_set ; 0x80014b0
        0x08002a88:    2000        .       MOVS     r0,#0
        0x08002a8a:    f7fefdd7    ....    BL       RF_SymbolRate_set ; 0x800163c
        0x08002a8e:    b672        r.      CPSID    i
        0x08002a90:    2400        .$      MOVS     r4,#0
        0x08002a92:    4f37        7O      LDR      r7,[pc,#220] ; [0x8002b70] = 0x200000b8
        0x08002a94:    1d7d        }.      ADDS     r5,r7,#5
        0x08002a96:    5d38        8]      LDRB     r0,[r7,r4]
        0x08002a98:    f000f8be    ....    BL       setChannel_BLE ; 0x8002c18
        0x08002a9c:    2100        .!      MOVS     r1,#0
        0x08002a9e:    2077        w       MOVS     r0,#0x77
        0x08002aa0:    f7feffa0    ....    BL       SPI_1BYT_SetTx ; 0x80019e4
        0x08002aa4:    2180        .!      MOVS     r1,#0x80
        0x08002aa6:    2077        w       MOVS     r0,#0x77
        0x08002aa8:    f7feff9c    ....    BL       SPI_1BYT_SetTx ; 0x80019e4
        0x08002aac:    207d        }       MOVS     r0,#0x7d
        0x08002aae:    00c0        ..      LSLS     r0,r0,#3
        0x08002ab0:    f7fffe9e    ....    BL       delay_us ; 0x80027f0
        0x08002ab4:    2001        .       MOVS     r0,#1
        0x08002ab6:    f7feff45    ..E.    BL       SPI_1BYT_SetRx ; 0x8001944
        0x08002aba:    0680        ..      LSLS     r0,r0,#26
        0x08002abc:    0e80        ..      LSRS     r0,r0,#26
        0x08002abe:    5528        (U      STRB     r0,[r5,r4]
        0x08002ac0:    f000f85a    ..Z.    BL       rafael_reset_phy_fsm ; 0x8002b78
        0x08002ac4:    1c64        d.      ADDS     r4,r4,#1
        0x08002ac6:    b2e4        ..      UXTB     r4,r4
        0x08002ac8:    2c05        .,      CMP      r4,#5
        0x08002aca:    d3e4        ..      BCC      0x8002a96 ; rafael_pll_calibration + 74
        0x08002acc:    4928        (I      LDR      r1,[pc,#160] ; [0x8002b70] = 0x200000b8
        0x08002ace:    1d49        I.      ADDS     r1,r1,#5
        0x08002ad0:    7848        Hx      LDRB     r0,[r1,#1]
        0x08002ad2:    7809        .x      LDRB     r1,[r1,#0]
        0x08002ad4:    4288        .B      CMP      r0,r1
        0x08002ad6:    d90a        ..      BLS      0x8002aee ; rafael_pll_calibration + 162
        0x08002ad8:    4a25        %J      LDR      r2,[pc,#148] ; [0x8002b70] = 0x200000b8
        0x08002ada:    1d52        R.      ADDS     r2,r2,#5
        0x08002adc:    7891        .x      LDRB     r1,[r2,#2]
        0x08002ade:    4281        .B      CMP      r1,r0
        0x08002ae0:    d905        ..      BLS      0x8002aee ; rafael_pll_calibration + 162
        0x08002ae2:    78d0        .x      LDRB     r0,[r2,#3]
        0x08002ae4:    4288        .B      CMP      r0,r1
        0x08002ae6:    d902        ..      BLS      0x8002aee ; rafael_pll_calibration + 162
        0x08002ae8:    7911        .y      LDRB     r1,[r2,#4]
        0x08002aea:    4281        .B      CMP      r1,r0
        0x08002aec:    d80b        ..      BHI      0x8002b06 ; rafael_pll_calibration + 186
        0x08002aee:    2124        $!      MOVS     r1,#0x24
        0x08002af0:    481f        .H      LDR      r0,[pc,#124] ; [0x8002b70] = 0x200000b8
        0x08002af2:    1d40        @.      ADDS     r0,r0,#5
        0x08002af4:    7001        .p      STRB     r1,[r0,#0]
        0x08002af6:    2126        &!      MOVS     r1,#0x26
        0x08002af8:    7041        Ap      STRB     r1,[r0,#1]
        0x08002afa:    2129        )!      MOVS     r1,#0x29
        0x08002afc:    7081        .p      STRB     r1,[r0,#2]
        0x08002afe:    212b        +!      MOVS     r1,#0x2b
        0x08002b00:    70c1        .p      STRB     r1,[r0,#3]
        0x08002b02:    212d        -!      MOVS     r1,#0x2d
        0x08002b04:    7101        .q      STRB     r1,[r0,#4]
        0x08002b06:    2400        .$      MOVS     r4,#0
        0x08002b08:    e018        ..      B        0x8002b3c ; rafael_pll_calibration + 240
        0x08002b0a:    2c00        .,      CMP      r4,#0
        0x08002b0c:    d016        ..      BEQ      0x8002b3c ; rafael_pll_calibration + 240
        0x08002b0e:    0067        g.      LSLS     r7,r4,#1
        0x08002b10:    4818        .H      LDR      r0,[pc,#96] ; [0x8002b74] = 0x200001d8
        0x08002b12:    1839        9.      ADDS     r1,r7,r0
        0x08002b14:    3940        @9      SUBS     r1,r1,#0x40
        0x08002b16:    8fcd        ..      LDRH     r5,[r1,#0x3e]
        0x08002b18:    e00c        ..      B        0x8002b34 ; rafael_pll_calibration + 232
        0x08002b1a:    4816        .H      LDR      r0,[pc,#88] ; [0x8002b74] = 0x200001d8
        0x08002b1c:    3888        .8      SUBS     r0,r0,#0x88
        0x08002b1e:    5d81        .]      LDRB     r1,[r0,r6]
        0x08002b20:    4812        .H      LDR      r0,[pc,#72] ; [0x8002b6c] = 0x200005e4
        0x08002b22:    300e        .0      ADDS     r0,r0,#0xe
        0x08002b24:    1809        ..      ADDS     r1,r1,r0
        0x08002b26:    4628        (F      MOV      r0,r5
        0x08002b28:    f7ffff5c    ..\.    BL       rafael_pll_bank_get ; 0x80029e4
        0x08002b2c:    1cad        ..      ADDS     r5,r5,#2
        0x08002b2e:    b2ad        ..      UXTH     r5,r5
        0x08002b30:    1c76        v.      ADDS     r6,r6,#1
        0x08002b32:    b2f6        ..      UXTB     r6,r6
        0x08002b34:    480f        .H      LDR      r0,[pc,#60] ; [0x8002b74] = 0x200001d8
        0x08002b36:    5bc0        .[      LDRH     r0,[r0,r7]
        0x08002b38:    42a8        .B      CMP      r0,r5
        0x08002b3a:    d8ee        ..      BHI      0x8002b1a ; rafael_pll_calibration + 206
        0x08002b3c:    1c64        d.      ADDS     r4,r4,#1
        0x08002b3e:    b2e4        ..      UXTB     r4,r4
        0x08002b40:    2c05        .,      CMP      r4,#5
        0x08002b42:    d3e2        ..      BCC      0x8002b0a ; rafael_pll_calibration + 190
        0x08002b44:    480a        .H      LDR      r0,[pc,#40] ; [0x8002b70] = 0x200000b8
        0x08002b46:    1d40        @.      ADDS     r0,r0,#5
        0x08002b48:    7901        .y      LDRB     r1,[r0,#4]
        0x08002b4a:    4808        .H      LDR      r0,[pc,#32] ; [0x8002b6c] = 0x200005e4
        0x08002b4c:    302e        .0      ADDS     r0,r0,#0x2e
        0x08002b4e:    71c1        .q      STRB     r1,[r0,#7]
        0x08002b50:    21ff        .!      MOVS     r1,#0xff
        0x08002b52:    203e        >       MOVS     r0,#0x3e
        0x08002b54:    f7feff46    ..F.    BL       SPI_1BYT_SetTx ; 0x80019e4
        0x08002b58:    f7fefeac    ....    BL       RF_WTR_intOn ; 0x80018b4
        0x08002b5c:    b662        b.      CPSIE    i
        0x08002b5e:    2203        ."      MOVS     r2,#3
        0x08002b60:    4903        .I      LDR      r1,[pc,#12] ; [0x8002b70] = 0x200000b8
        0x08002b62:    3165        e1      ADDS     r1,r1,#0x65
        0x08002b64:    205b        [       MOVS     r0,#0x5b
        0x08002b66:    f7fff86d    ..m.    BL       SPI_PDMA_SetTx ; 0x8001c44
        0x08002b6a:    bdf8        ..      POP      {r3-r7,pc}
    $d
        0x08002b6c:    200005e4    ...     DCD    536872420
        0x08002b70:    200000b8    ...     DCD    536871096
        0x08002b74:    200001d8    ...     DCD    536871384
    $t
    i.rafael_reset_phy_fsm
    rafael_reset_phy_fsm
        0x08002b78:    b570        p.      PUSH     {r4-r6,lr}
        0x08002b7a:    2680        .&      MOVS     r6,#0x80
        0x08002b7c:    4d0b        .M      LDR      r5,[pc,#44] ; [0x8002bac] = 0x200005e4
        0x08002b7e:    b672        r.      CPSID    i
        0x08002b80:    7b2c        ,{      LDRB     r4,[r5,#0xc]
        0x08002b82:    b662        b.      CPSIE    i
        0x08002b84:    4621        !F      MOV      r1,r4
        0x08002b86:    4331        1C      ORRS     r1,r1,r6
        0x08002b88:    2079        y       MOVS     r0,#0x79
        0x08002b8a:    f7feff2b    ..+.    BL       SPI_1BYT_SetTx ; 0x80019e4
        0x08002b8e:    b672        r.      CPSID    i
        0x08002b90:    7b28        ({      LDRB     r0,[r5,#0xc]
        0x08002b92:    42a0        .B      CMP      r0,r4
        0x08002b94:    d103        ..      BNE      0x8002b9e ; rafael_reset_phy_fsm + 38
        0x08002b96:    4621        !F      MOV      r1,r4
        0x08002b98:    2079        y       MOVS     r0,#0x79
        0x08002b9a:    f7feff23    ..#.    BL       SPI_1BYT_SetTx ; 0x80019e4
        0x08002b9e:    b662        b.      CPSIE    i
        0x08002ba0:    b672        r.      CPSID    i
        0x08002ba2:    7b28        ({      LDRB     r0,[r5,#0xc]
        0x08002ba4:    42a0        .B      CMP      r0,r4
        0x08002ba6:    b662        b.      CPSIE    i
        0x08002ba8:    d1e9        ..      BNE      0x8002b7e ; rafael_reset_phy_fsm + 6
        0x08002baa:    bd70        p.      POP      {r4-r6,pc}
    $d
        0x08002bac:    200005e4    ...     DCD    536872420
    $t
    i.rafael_reset_phy_fsm_Isr
    rafael_reset_phy_fsm_Isr
        0x08002bb0:    b510        ..      PUSH     {r4,lr}
        0x08002bb2:    4809        .H      LDR      r0,[pc,#36] ; [0x8002bd8] = 0x200005e4
        0x08002bb4:    7b04        .{      LDRB     r4,[r0,#0xc]
        0x08002bb6:    4621        !F      MOV      r1,r4
        0x08002bb8:    2080        .       MOVS     r0,#0x80
        0x08002bba:    4301        .C      ORRS     r1,r1,r0
        0x08002bbc:    2079        y       MOVS     r0,#0x79
        0x08002bbe:    f7feff35    ..5.    BL       SPI_1BYT_SetTx_Isr ; 0x8001a2c
        0x08002bc2:    4806        .H      LDR      r0,[pc,#24] ; [0x8002bdc] = 0x20000096
        0x08002bc4:    7801        .x      LDRB     r1,[r0,#0]
        0x08002bc6:    0889        ..      LSRS     r1,r1,#2
        0x08002bc8:    0089        ..      LSLS     r1,r1,#2
        0x08002bca:    7001        .p      STRB     r1,[r0,#0]
        0x08002bcc:    4621        !F      MOV      r1,r4
        0x08002bce:    2079        y       MOVS     r0,#0x79
        0x08002bd0:    f7feff2c    ..,.    BL       SPI_1BYT_SetTx_Isr ; 0x8001a2c
        0x08002bd4:    bd10        ..      POP      {r4,pc}
    $d
        0x08002bd6:    0000        ..      DCW    0
        0x08002bd8:    200005e4    ...     DCD    536872420
        0x08002bdc:    20000096    ...     DCD    536871062
    $t
    i.rafael_spi_clear_fifo
    rafael_spi_clear_fifo
        0x08002be0:    b510        ..      PUSH     {r4,lr}
        0x08002be2:    4805        .H      LDR      r0,[pc,#20] ; [0x8002bf8] = 0x200005e4
        0x08002be4:    7a41        Az      LDRB     r1,[r0,#9]
        0x08002be6:    2280        ."      MOVS     r2,#0x80
        0x08002be8:    4311        .C      ORRS     r1,r1,r2
        0x08002bea:    7241        Ar      STRB     r1,[r0,#9]
        0x08002bec:    7a41        Az      LDRB     r1,[r0,#9]
        0x08002bee:    206b        k       MOVS     r0,#0x6b
        0x08002bf0:    f7fefef8    ....    BL       SPI_1BYT_SetTx ; 0x80019e4
        0x08002bf4:    bd10        ..      POP      {r4,pc}
    $d
        0x08002bf6:    0000        ..      DCW    0
        0x08002bf8:    200005e4    ...     DCD    536872420
    $t
    i.rafael_spi_clear_tx_fifo_cnt
    rafael_spi_clear_tx_fifo_cnt
        0x08002bfc:    b510        ..      PUSH     {r4,lr}
        0x08002bfe:    4805        .H      LDR      r0,[pc,#20] ; [0x8002c14] = 0x200005e4
        0x08002c00:    7a41        Az      LDRB     r1,[r0,#9]
        0x08002c02:    2240        @"      MOVS     r2,#0x40
        0x08002c04:    4311        .C      ORRS     r1,r1,r2
        0x08002c06:    7241        Ar      STRB     r1,[r0,#9]
        0x08002c08:    7a41        Az      LDRB     r1,[r0,#9]
        0x08002c0a:    206b        k       MOVS     r0,#0x6b
        0x08002c0c:    f7fefeea    ....    BL       SPI_1BYT_SetTx ; 0x80019e4
        0x08002c10:    bd10        ..      POP      {r4,pc}
    $d
        0x08002c12:    0000        ..      DCW    0
        0x08002c14:    200005e4    ...     DCD    536872420
    $t
    i.setChannel_BLE
    setChannel_BLE
        0x08002c18:    b570        p.      PUSH     {r4-r6,lr}
        0x08002c1a:    4d06        .M      LDR      r5,[pc,#24] ; [0x8002c34] = 0x200005e4
        0x08002c1c:    7b29        ){      LDRB     r1,[r5,#0xc]
        0x08002c1e:    098c        ..      LSRS     r4,r1,#6
        0x08002c20:    01a4        ..      LSLS     r4,r4,#6
        0x08002c22:    0680        ..      LSLS     r0,r0,#26
        0x08002c24:    0e80        ..      LSRS     r0,r0,#26
        0x08002c26:    4304        .C      ORRS     r4,r4,r0
        0x08002c28:    4621        !F      MOV      r1,r4
        0x08002c2a:    2079        y       MOVS     r0,#0x79
        0x08002c2c:    f7fefefe    ....    BL       SPI_1BYT_SetTx_Isr ; 0x8001a2c
        0x08002c30:    732c        ,s      STRB     r4,[r5,#0xc]
        0x08002c32:    bd70        p.      POP      {r4-r6,pc}
    $d
        0x08002c34:    200005e4    ...     DCD    536872420
    $t
    i.spiGpioWriteReg
    spiGpioWriteReg
        0x08002c38:    b5f3        ..      PUSH     {r0,r1,r4-r7,lr}
        0x08002c3a:    4e3a        :N      LDR      r6,[pc,#232] ; [0x8002d24] = 0x48000400
        0x08002c3c:    2101        .!      MOVS     r1,#1
        0x08002c3e:    89b0        ..      LDRH     r0,[r6,#0xc]
        0x08002c40:    0309        ..      LSLS     r1,r1,#12
        0x08002c42:    4308        .C      ORRS     r0,r0,r1
        0x08002c44:    004f        O.      LSLS     r7,r1,#1
        0x08002c46:    43b8        .C      BICS     r0,r0,r7
        0x08002c48:    b081        ..      SUB      sp,sp,#4
        0x08002c4a:    4388        .C      BICS     r0,r0,r1
        0x08002c4c:    81b0        ..      STRH     r0,[r6,#0xc]
        0x08002c4e:    2001        .       MOVS     r0,#1
        0x08002c50:    f7fffdce    ....    BL       delay_us ; 0x80027f0
        0x08002c54:    9801        ..      LDR      r0,[sp,#4]
        0x08002c56:    0645        E.      LSLS     r5,r0,#25
        0x08002c58:    0e6d        m.      LSRS     r5,r5,#25
        0x08002c5a:    2400        .$      MOVS     r4,#0
        0x08002c5c:    0628        (.      LSLS     r0,r5,#24
        0x08002c5e:    89b0        ..      LDRH     r0,[r6,#0xc]
        0x08002c60:    d503        ..      BPL      0x8002c6a ; spiGpioWriteReg + 50
        0x08002c62:    2101        .!      MOVS     r1,#1
        0x08002c64:    03c9        ..      LSLS     r1,r1,#15
        0x08002c66:    4308        .C      ORRS     r0,r0,r1
        0x08002c68:    e001        ..      B        0x8002c6e ; spiGpioWriteReg + 54
        0x08002c6a:    0440        @.      LSLS     r0,r0,#17
        0x08002c6c:    0c40        @.      LSRS     r0,r0,#17
        0x08002c6e:    81b0        ..      STRH     r0,[r6,#0xc]
        0x08002c70:    2001        .       MOVS     r0,#1
        0x08002c72:    f7fffdbd    ....    BL       delay_us ; 0x80027f0
        0x08002c76:    89b0        ..      LDRH     r0,[r6,#0xc]
        0x08002c78:    4338        8C      ORRS     r0,r0,r7
        0x08002c7a:    81b0        ..      STRH     r0,[r6,#0xc]
        0x08002c7c:    2001        .       MOVS     r0,#1
        0x08002c7e:    f7fffdb7    ....    BL       delay_us ; 0x80027f0
        0x08002c82:    89b0        ..      LDRH     r0,[r6,#0xc]
        0x08002c84:    1c64        d.      ADDS     r4,r4,#1
        0x08002c86:    43b8        .C      BICS     r0,r0,r7
        0x08002c88:    81b0        ..      STRH     r0,[r6,#0xc]
        0x08002c8a:    0668        h.      LSLS     r0,r5,#25
        0x08002c8c:    0e05        ..      LSRS     r5,r0,#24
        0x08002c8e:    b2e4        ..      UXTB     r4,r4
        0x08002c90:    2c08        .,      CMP      r4,#8
        0x08002c92:    d3e3        ..      BCC      0x8002c5c ; spiGpioWriteReg + 36
        0x08002c94:    9801        ..      LDR      r0,[sp,#4]
        0x08002c96:    09c5        ..      LSRS     r5,r0,#7
        0x08002c98:    2400        .$      MOVS     r4,#0
        0x08002c9a:    0628        (.      LSLS     r0,r5,#24
        0x08002c9c:    89b0        ..      LDRH     r0,[r6,#0xc]
        0x08002c9e:    d503        ..      BPL      0x8002ca8 ; spiGpioWriteReg + 112
        0x08002ca0:    2101        .!      MOVS     r1,#1
        0x08002ca2:    03c9        ..      LSLS     r1,r1,#15
        0x08002ca4:    4308        .C      ORRS     r0,r0,r1
        0x08002ca6:    e001        ..      B        0x8002cac ; spiGpioWriteReg + 116
        0x08002ca8:    0440        @.      LSLS     r0,r0,#17
        0x08002caa:    0c40        @.      LSRS     r0,r0,#17
        0x08002cac:    81b0        ..      STRH     r0,[r6,#0xc]
        0x08002cae:    2001        .       MOVS     r0,#1
        0x08002cb0:    f7fffd9e    ....    BL       delay_us ; 0x80027f0
        0x08002cb4:    89b0        ..      LDRH     r0,[r6,#0xc]
        0x08002cb6:    4338        8C      ORRS     r0,r0,r7
        0x08002cb8:    81b0        ..      STRH     r0,[r6,#0xc]
        0x08002cba:    2001        .       MOVS     r0,#1
        0x08002cbc:    f7fffd98    ....    BL       delay_us ; 0x80027f0
        0x08002cc0:    89b0        ..      LDRH     r0,[r6,#0xc]
        0x08002cc2:    1c64        d.      ADDS     r4,r4,#1
        0x08002cc4:    43b8        .C      BICS     r0,r0,r7
        0x08002cc6:    81b0        ..      STRH     r0,[r6,#0xc]
        0x08002cc8:    0668        h.      LSLS     r0,r5,#25
        0x08002cca:    0e05        ..      LSRS     r5,r0,#24
        0x08002ccc:    b2e4        ..      UXTB     r4,r4
        0x08002cce:    2c08        .,      CMP      r4,#8
        0x08002cd0:    d3e3        ..      BCC      0x8002c9a ; spiGpioWriteReg + 98
        0x08002cd2:    9d02        ..      LDR      r5,[sp,#8]
        0x08002cd4:    2400        .$      MOVS     r4,#0
        0x08002cd6:    0628        (.      LSLS     r0,r5,#24
        0x08002cd8:    89b0        ..      LDRH     r0,[r6,#0xc]
        0x08002cda:    d503        ..      BPL      0x8002ce4 ; spiGpioWriteReg + 172
        0x08002cdc:    2101        .!      MOVS     r1,#1
        0x08002cde:    03c9        ..      LSLS     r1,r1,#15
        0x08002ce0:    4308        .C      ORRS     r0,r0,r1
        0x08002ce2:    e001        ..      B        0x8002ce8 ; spiGpioWriteReg + 176
        0x08002ce4:    0440        @.      LSLS     r0,r0,#17
        0x08002ce6:    0c40        @.      LSRS     r0,r0,#17
        0x08002ce8:    81b0        ..      STRH     r0,[r6,#0xc]
        0x08002cea:    2001        .       MOVS     r0,#1
        0x08002cec:    f7fffd80    ....    BL       delay_us ; 0x80027f0
        0x08002cf0:    89b0        ..      LDRH     r0,[r6,#0xc]
        0x08002cf2:    4338        8C      ORRS     r0,r0,r7
        0x08002cf4:    81b0        ..      STRH     r0,[r6,#0xc]
        0x08002cf6:    2001        .       MOVS     r0,#1
        0x08002cf8:    f7fffd7a    ..z.    BL       delay_us ; 0x80027f0
        0x08002cfc:    89b0        ..      LDRH     r0,[r6,#0xc]
        0x08002cfe:    1c64        d.      ADDS     r4,r4,#1
        0x08002d00:    43b8        .C      BICS     r0,r0,r7
        0x08002d02:    81b0        ..      STRH     r0,[r6,#0xc]
        0x08002d04:    0668        h.      LSLS     r0,r5,#25
        0x08002d06:    0e05        ..      LSRS     r5,r0,#24
        0x08002d08:    b2e4        ..      UXTB     r4,r4
        0x08002d0a:    2c08        .,      CMP      r4,#8
        0x08002d0c:    d3e3        ..      BCC      0x8002cd6 ; spiGpioWriteReg + 158
        0x08002d0e:    2001        .       MOVS     r0,#1
        0x08002d10:    f7fffd6e    ..n.    BL       delay_us ; 0x80027f0
        0x08002d14:    89b0        ..      LDRH     r0,[r6,#0xc]
        0x08002d16:    2101        .!      MOVS     r1,#1
        0x08002d18:    0309        ..      LSLS     r1,r1,#12
        0x08002d1a:    4308        .C      ORRS     r0,r0,r1
        0x08002d1c:    0440        @.      LSLS     r0,r0,#17
        0x08002d1e:    0c40        @.      LSRS     r0,r0,#17
        0x08002d20:    81b0        ..      STRH     r0,[r6,#0xc]
        0x08002d22:    bdfe        ..      POP      {r1-r7,pc}
    $d
        0x08002d24:    48000400    ...H    DCD    1207960576
    $d.realdata
    .constdata
        0x08002d28:    ffffffff    ....    DCD    4294967295
        0x08002d2c:    ffffffff    ....    DCD    4294967295
    .constdata
        0x08002d30:    000000ff    ....    DCD    255
        0x08002d34:    00000000    ....    DCD    0
        0x08002d38:    00000000    ....    DCD    0
        0x08002d3c:    000000ff    ....    DCD    255
        0x08002d40:    00000000    ....    DCD    0
        0x08002d44:    00000000    ....    DCD    0
    Region$$Table$$Base
        0x08002d48:    08002d68    h-..    DCD    134229352
        0x08002d4c:    20000000    ...     DCD    536870912
        0x08002d50:    000001fc    ....    DCD    508
        0x08002d54:    08000272    r...    DCD    134218354
        0x08002d58:    08002ef0    ....    DCD    134229744
        0x08002d5c:    200001fc    ...     DCD    536871420
        0x08002d60:    00000824    $...    DCD    2084
        0x08002d64:    08002504    .%..    DCD    134227204
    Region$$Table$$Limit

** Section #2 'RW_IRAM1' (SHT_PROGBITS) [SHF_ALLOC + SHF_WRITE]
    Size   : 392 bytes (alignment 8)
    Address: 0x20000000


** Section #3 'RW_IRAM1' (SHT_NOBITS) [SHF_ALLOC + SHF_WRITE]
    Size   : 2084 bytes (alignment 8)
    Address: 0x200001fc


** Section #4 '.debug_abbrev' (SHT_PROGBITS)
    Size   : 1476 bytes


** Section #5 '.debug_frame' (SHT_PROGBITS)
    Size   : 4032 bytes


** Section #6 '.debug_info' (SHT_PROGBITS)
    Size   : 88008 bytes


** Section #7 '.debug_line' (SHT_PROGBITS)
    Size   : 24900 bytes


** Section #8 '.debug_loc' (SHT_PROGBITS)
    Size   : 8908 bytes


** Section #9 '.debug_macinfo' (SHT_PROGBITS)
    Size   : 147776 bytes


** Section #10 '.debug_pubnames' (SHT_PROGBITS)
    Size   : 7133 bytes


** Section #11 '.symtab' (SHT_SYMTAB)
    Size   : 12432 bytes (alignment 4)
    String table #12 '.strtab'
    Last local symbol no. 484


** Section #12 '.strtab' (SHT_STRTAB)
    Size   : 11096 bytes


** Section #13 '.note' (SHT_NOTE)
    Size   : 28 bytes (alignment 4)


** Section #14 '.comment' (SHT_PROGBITS)
    Size   : 35428 bytes


** Section #15 '.shstrtab' (SHT_STRTAB)
    Size   : 156 bytes


